Component: ARM Compiler 5.06 update 6 (build 750) Tool: armlink [4d35ed]

==============================================================================

Section Cross References

    startup_stm32f427_437xx.o(STACK) refers (Special) to heapauxi.o(.text) for __use_two_region_memory
    startup_stm32f427_437xx.o(HEAP) refers (Special) to heapauxi.o(.text) for __use_two_region_memory
    startup_stm32f427_437xx.o(RESET) refers (Special) to heapauxi.o(.text) for __use_two_region_memory
    startup_stm32f427_437xx.o(RESET) refers to startup_stm32f427_437xx.o(STACK) for __initial_sp
    startup_stm32f427_437xx.o(RESET) refers to startup_stm32f427_437xx.o(.text) for Reset_Handler
    startup_stm32f427_437xx.o(RESET) refers to stm32f4xx_it.o(i.NMI_Handler) for NMI_Handler
    startup_stm32f427_437xx.o(RESET) refers to stm32f4xx_it.o(i.HardFault_Handler) for HardFault_Handler
    startup_stm32f427_437xx.o(RESET) refers to stm32f4xx_it.o(i.MemManage_Handler) for MemManage_Handler
    startup_stm32f427_437xx.o(RESET) refers to stm32f4xx_it.o(i.BusFault_Handler) for BusFault_Handler
    startup_stm32f427_437xx.o(RESET) refers to stm32f4xx_it.o(i.UsageFault_Handler) for UsageFault_Handler
    startup_stm32f427_437xx.o(RESET) refers to port.o(.emb_text) for SVC_Handler
    startup_stm32f427_437xx.o(RESET) refers to stm32f4xx_it.o(i.DebugMon_Handler) for DebugMon_Handler
    startup_stm32f427_437xx.o(RESET) refers to stm32f4xx_it.o(i.SysTick_Handler) for SysTick_Handler
    startup_stm32f427_437xx.o(RESET) refers to usart.o(i.DMA1_Stream0_IRQHandler) for DMA1_Stream0_IRQHandler
    startup_stm32f427_437xx.o(RESET) refers to usart.o(i.DMA1_Stream3_IRQHandler) for DMA1_Stream3_IRQHandler
    startup_stm32f427_437xx.o(RESET) refers to can.o(i.CAN1_TX_IRQHandler) for CAN1_TX_IRQHandler
    startup_stm32f427_437xx.o(RESET) refers to can.o(i.CAN1_RX0_IRQHandler) for CAN1_RX0_IRQHandler
    startup_stm32f427_437xx.o(RESET) refers to imu.o(i.EXTI9_5_IRQHandler) for EXTI9_5_IRQHandler
    startup_stm32f427_437xx.o(RESET) refers to tim2.o(i.TIM2_IRQHandler) for TIM2_IRQHandler
    startup_stm32f427_437xx.o(RESET) refers to dr16.o(i.USART1_IRQHandler) for USART1_IRQHandler
    startup_stm32f427_437xx.o(RESET) refers to usart.o(i.USART3_IRQHandler) for USART3_IRQHandler
    startup_stm32f427_437xx.o(RESET) refers to general.o(i.TIM7_IRQHandler) for TIM7_IRQHandler
    startup_stm32f427_437xx.o(RESET) refers to usart.o(i.USART6_IRQHandler) for USART6_IRQHandler
    startup_stm32f427_437xx.o(RESET) refers to usart.o(i.UART8_IRQHandler) for UART8_IRQHandler
    startup_stm32f427_437xx.o(.text) refers (Special) to heapauxi.o(.text) for __use_two_region_memory
    startup_stm32f427_437xx.o(.text) refers to system_stm32f4xx.o(i.SystemInit) for SystemInit
    startup_stm32f427_437xx.o(.text) refers to __main.o(!!!main) for __main
    startup_stm32f427_437xx.o(.text) refers to startup_stm32f427_437xx.o(HEAP) for Heap_Mem
    startup_stm32f427_437xx.o(.text) refers to startup_stm32f427_437xx.o(STACK) for Stack_Mem
    stm32f4xx_can.o(i.CAN_DeInit) refers to stm32f4xx_rcc.o(i.RCC_APB1PeriphResetCmd) for RCC_APB1PeriphResetCmd
    stm32f4xx_can.o(i.CAN_GetITStatus) refers to stm32f4xx_can.o(i.CheckITStatus) for CheckITStatus
    stm32f4xx_gpio.o(i.GPIO_DeInit) refers to stm32f4xx_rcc.o(i.RCC_AHB1PeriphResetCmd) for RCC_AHB1PeriphResetCmd
    stm32f4xx_rcc.o(i.RCC_GetClocksFreq) refers to stm32f4xx_rcc.o(.data) for APBAHBPrescTable
    stm32f4xx_rcc.o(i.RCC_WaitForHSEStartUp) refers to stm32f4xx_rcc.o(i.RCC_GetFlagStatus) for RCC_GetFlagStatus
    stm32f4xx_syscfg.o(i.SYSCFG_DeInit) refers to stm32f4xx_rcc.o(i.RCC_APB2PeriphResetCmd) for RCC_APB2PeriphResetCmd
    stm32f4xx_tim.o(i.TIM_DeInit) refers to stm32f4xx_rcc.o(i.RCC_APB2PeriphResetCmd) for RCC_APB2PeriphResetCmd
    stm32f4xx_tim.o(i.TIM_DeInit) refers to stm32f4xx_rcc.o(i.RCC_APB1PeriphResetCmd) for RCC_APB1PeriphResetCmd
    stm32f4xx_tim.o(i.TIM_ETRClockMode1Config) refers to stm32f4xx_tim.o(i.TIM_ETRConfig) for TIM_ETRConfig
    stm32f4xx_tim.o(i.TIM_ETRClockMode2Config) refers to stm32f4xx_tim.o(i.TIM_ETRConfig) for TIM_ETRConfig
    stm32f4xx_tim.o(i.TIM_ICInit) refers to stm32f4xx_tim.o(i.TI1_Config) for TI1_Config
    stm32f4xx_tim.o(i.TIM_ICInit) refers to stm32f4xx_tim.o(i.TIM_SetIC1Prescaler) for TIM_SetIC1Prescaler
    stm32f4xx_tim.o(i.TIM_ICInit) refers to stm32f4xx_tim.o(i.TI2_Config) for TI2_Config
    stm32f4xx_tim.o(i.TIM_ICInit) refers to stm32f4xx_tim.o(i.TIM_SetIC2Prescaler) for TIM_SetIC2Prescaler
    stm32f4xx_tim.o(i.TIM_ICInit) refers to stm32f4xx_tim.o(i.TI3_Config) for TI3_Config
    stm32f4xx_tim.o(i.TIM_ICInit) refers to stm32f4xx_tim.o(i.TIM_SetIC3Prescaler) for TIM_SetIC3Prescaler
    stm32f4xx_tim.o(i.TIM_ICInit) refers to stm32f4xx_tim.o(i.TI4_Config) for TI4_Config
    stm32f4xx_tim.o(i.TIM_ICInit) refers to stm32f4xx_tim.o(i.TIM_SetIC4Prescaler) for TIM_SetIC4Prescaler
    stm32f4xx_tim.o(i.TIM_ITRxExternalClockConfig) refers to stm32f4xx_tim.o(i.TIM_SelectInputTrigger) for TIM_SelectInputTrigger
    stm32f4xx_tim.o(i.TIM_PWMIConfig) refers to stm32f4xx_tim.o(i.TI1_Config) for TI1_Config
    stm32f4xx_tim.o(i.TIM_PWMIConfig) refers to stm32f4xx_tim.o(i.TIM_SetIC1Prescaler) for TIM_SetIC1Prescaler
    stm32f4xx_tim.o(i.TIM_PWMIConfig) refers to stm32f4xx_tim.o(i.TI2_Config) for TI2_Config
    stm32f4xx_tim.o(i.TIM_PWMIConfig) refers to stm32f4xx_tim.o(i.TIM_SetIC2Prescaler) for TIM_SetIC2Prescaler
    stm32f4xx_tim.o(i.TIM_TIxExternalClockConfig) refers to stm32f4xx_tim.o(i.TI2_Config) for TI2_Config
    stm32f4xx_tim.o(i.TIM_TIxExternalClockConfig) refers to stm32f4xx_tim.o(i.TI1_Config) for TI1_Config
    stm32f4xx_tim.o(i.TIM_TIxExternalClockConfig) refers to stm32f4xx_tim.o(i.TIM_SelectInputTrigger) for TIM_SelectInputTrigger
    stm32f4xx_usart.o(i.USART_DeInit) refers to stm32f4xx_rcc.o(i.RCC_APB2PeriphResetCmd) for RCC_APB2PeriphResetCmd
    stm32f4xx_usart.o(i.USART_DeInit) refers to stm32f4xx_rcc.o(i.RCC_APB1PeriphResetCmd) for RCC_APB1PeriphResetCmd
    stm32f4xx_usart.o(i.USART_Init) refers to stm32f4xx_rcc.o(i.RCC_GetClocksFreq) for RCC_GetClocksFreq
    stm32f4xx_spi.o(i.SPI_I2S_DeInit) refers to stm32f4xx_rcc.o(i.RCC_APB2PeriphResetCmd) for RCC_APB2PeriphResetCmd
    stm32f4xx_spi.o(i.SPI_I2S_DeInit) refers to stm32f4xx_rcc.o(i.RCC_APB1PeriphResetCmd) for RCC_APB1PeriphResetCmd
    heap_4.o(i.prvHeapInit) refers to heap_4.o(.bss) for ucHeap
    heap_4.o(i.prvHeapInit) refers to heap_4.o(.data) for xStart
    heap_4.o(i.prvInsertBlockIntoFreeList) refers to heap_4.o(.data) for xStart
    heap_4.o(i.pvPortMalloc) refers to _printf_percent.o(.ARM.Collect$$_printf_percent$$00000000) for _printf_percent
    heap_4.o(i.pvPortMalloc) refers to _printf_d.o(.ARM.Collect$$_printf_percent$$00000009) for _printf_d
    heap_4.o(i.pvPortMalloc) refers to _printf_s.o(.ARM.Collect$$_printf_percent$$00000014) for _printf_s
    heap_4.o(i.pvPortMalloc) refers to _printf_dec.o(.text) for _printf_int_dec
    heap_4.o(i.pvPortMalloc) refers to _printf_str.o(.text) for _printf_str
    heap_4.o(i.pvPortMalloc) refers to tasks.o(i.vTaskSuspendAll) for vTaskSuspendAll
    heap_4.o(i.pvPortMalloc) refers to heap_4.o(i.prvHeapInit) for prvHeapInit
    heap_4.o(i.pvPortMalloc) refers to noretval__2printf.o(.text) for __2printf
    heap_4.o(i.pvPortMalloc) refers to heap_4.o(i.prvInsertBlockIntoFreeList) for prvInsertBlockIntoFreeList
    heap_4.o(i.pvPortMalloc) refers to tasks.o(i.xTaskResumeAll) for xTaskResumeAll
    heap_4.o(i.pvPortMalloc) refers to heap_4.o(.data) for pxEnd
    heap_4.o(i.vPortFree) refers to _printf_percent.o(.ARM.Collect$$_printf_percent$$00000000) for _printf_percent
    heap_4.o(i.vPortFree) refers to _printf_d.o(.ARM.Collect$$_printf_percent$$00000009) for _printf_d
    heap_4.o(i.vPortFree) refers to _printf_s.o(.ARM.Collect$$_printf_percent$$00000014) for _printf_s
    heap_4.o(i.vPortFree) refers to _printf_dec.o(.text) for _printf_int_dec
    heap_4.o(i.vPortFree) refers to _printf_str.o(.text) for _printf_str
    heap_4.o(i.vPortFree) refers to noretval__2printf.o(.text) for __2printf
    heap_4.o(i.vPortFree) refers to tasks.o(i.vTaskSuspendAll) for vTaskSuspendAll
    heap_4.o(i.vPortFree) refers to heap_4.o(i.prvInsertBlockIntoFreeList) for prvInsertBlockIntoFreeList
    heap_4.o(i.vPortFree) refers to tasks.o(i.xTaskResumeAll) for xTaskResumeAll
    heap_4.o(i.vPortFree) refers to heap_4.o(.data) for xBlockAllocatedBit
    heap_4.o(i.xPortGetFreeHeapSize) refers to heap_4.o(.data) for xFreeBytesRemaining
    heap_4.o(i.xPortGetMinimumEverFreeHeapSize) refers to heap_4.o(.data) for xMinimumEverFreeBytesRemaining
    port.o(.emb_text) refers to tasks.o(i.vTaskSwitchContext) for vTaskSwitchContext
    port.o(.emb_text) refers to tasks.o(.data) for pxCurrentTCB
    port.o(i.prvTaskExitError) refers to _printf_percent.o(.ARM.Collect$$_printf_percent$$00000000) for _printf_percent
    port.o(i.prvTaskExitError) refers to _printf_d.o(.ARM.Collect$$_printf_percent$$00000009) for _printf_d
    port.o(i.prvTaskExitError) refers to _printf_s.o(.ARM.Collect$$_printf_percent$$00000014) for _printf_s
    port.o(i.prvTaskExitError) refers to _printf_dec.o(.text) for _printf_int_dec
    port.o(i.prvTaskExitError) refers to _printf_str.o(.text) for _printf_str
    port.o(i.prvTaskExitError) refers to noretval__2printf.o(.text) for __2printf
    port.o(i.prvTaskExitError) refers to port.o(.data) for uxCriticalNesting
    port.o(i.pxPortInitialiseStack) refers to port.o(i.prvTaskExitError) for prvTaskExitError
    port.o(i.vPortEndScheduler) refers to _printf_percent.o(.ARM.Collect$$_printf_percent$$00000000) for _printf_percent
    port.o(i.vPortEndScheduler) refers to _printf_d.o(.ARM.Collect$$_printf_percent$$00000009) for _printf_d
    port.o(i.vPortEndScheduler) refers to _printf_s.o(.ARM.Collect$$_printf_percent$$00000014) for _printf_s
    port.o(i.vPortEndScheduler) refers to _printf_dec.o(.text) for _printf_int_dec
    port.o(i.vPortEndScheduler) refers to _printf_str.o(.text) for _printf_str
    port.o(i.vPortEndScheduler) refers to noretval__2printf.o(.text) for __2printf
    port.o(i.vPortEndScheduler) refers to port.o(.data) for uxCriticalNesting
    port.o(i.vPortEnterCritical) refers to _printf_percent.o(.ARM.Collect$$_printf_percent$$00000000) for _printf_percent
    port.o(i.vPortEnterCritical) refers to _printf_d.o(.ARM.Collect$$_printf_percent$$00000009) for _printf_d
    port.o(i.vPortEnterCritical) refers to _printf_s.o(.ARM.Collect$$_printf_percent$$00000014) for _printf_s
    port.o(i.vPortEnterCritical) refers to _printf_dec.o(.text) for _printf_int_dec
    port.o(i.vPortEnterCritical) refers to _printf_str.o(.text) for _printf_str
    port.o(i.vPortEnterCritical) refers to noretval__2printf.o(.text) for __2printf
    port.o(i.vPortEnterCritical) refers to port.o(.data) for uxCriticalNesting
    port.o(i.vPortExitCritical) refers to _printf_percent.o(.ARM.Collect$$_printf_percent$$00000000) for _printf_percent
    port.o(i.vPortExitCritical) refers to _printf_d.o(.ARM.Collect$$_printf_percent$$00000009) for _printf_d
    port.o(i.vPortExitCritical) refers to _printf_s.o(.ARM.Collect$$_printf_percent$$00000014) for _printf_s
    port.o(i.vPortExitCritical) refers to _printf_dec.o(.text) for _printf_int_dec
    port.o(i.vPortExitCritical) refers to _printf_str.o(.text) for _printf_str
    port.o(i.vPortExitCritical) refers to noretval__2printf.o(.text) for __2printf
    port.o(i.vPortExitCritical) refers to port.o(.data) for uxCriticalNesting
    port.o(i.vPortSetupTimerInterrupt) refers to system_stm32f4xx.o(.data) for SystemCoreClock
    port.o(i.vPortValidateInterruptPriority) refers to _printf_percent.o(.ARM.Collect$$_printf_percent$$00000000) for _printf_percent
    port.o(i.vPortValidateInterruptPriority) refers to _printf_d.o(.ARM.Collect$$_printf_percent$$00000009) for _printf_d
    port.o(i.vPortValidateInterruptPriority) refers to _printf_s.o(.ARM.Collect$$_printf_percent$$00000014) for _printf_s
    port.o(i.vPortValidateInterruptPriority) refers to _printf_dec.o(.text) for _printf_int_dec
    port.o(i.vPortValidateInterruptPriority) refers to _printf_str.o(.text) for _printf_str
    port.o(i.vPortValidateInterruptPriority) refers to port.o(.emb_text) for vPortGetIPSR
    port.o(i.vPortValidateInterruptPriority) refers to noretval__2printf.o(.text) for __2printf
    port.o(i.vPortValidateInterruptPriority) refers to port.o(.data) for ucMaxSysCallPriority
    port.o(i.xPortStartScheduler) refers to _printf_percent.o(.ARM.Collect$$_printf_percent$$00000000) for _printf_percent
    port.o(i.xPortStartScheduler) refers to _printf_d.o(.ARM.Collect$$_printf_percent$$00000009) for _printf_d
    port.o(i.xPortStartScheduler) refers to _printf_s.o(.ARM.Collect$$_printf_percent$$00000014) for _printf_s
    port.o(i.xPortStartScheduler) refers to _printf_dec.o(.text) for _printf_int_dec
    port.o(i.xPortStartScheduler) refers to _printf_str.o(.text) for _printf_str
    port.o(i.xPortStartScheduler) refers to noretval__2printf.o(.text) for __2printf
    port.o(i.xPortStartScheduler) refers to port.o(i.vPortSetupTimerInterrupt) for vPortSetupTimerInterrupt
    port.o(i.xPortStartScheduler) refers to port.o(.emb_text) for __asm___6_port_c_39a90d8d__prvEnableVFP
    port.o(i.xPortStartScheduler) refers to port.o(.data) for ucMaxSysCallPriority
    port.o(i.xPortSysTickHandler) refers to tasks.o(i.xTaskIncrementTick) for xTaskIncrementTick
    event_groups.o(i.vEventGroupClearBitsCallback) refers to event_groups.o(i.xEventGroupClearBits) for xEventGroupClearBits
    event_groups.o(i.vEventGroupDelete) refers to _printf_percent.o(.ARM.Collect$$_printf_percent$$00000000) for _printf_percent
    event_groups.o(i.vEventGroupDelete) refers to _printf_d.o(.ARM.Collect$$_printf_percent$$00000009) for _printf_d
    event_groups.o(i.vEventGroupDelete) refers to _printf_s.o(.ARM.Collect$$_printf_percent$$00000014) for _printf_s
    event_groups.o(i.vEventGroupDelete) refers to _printf_dec.o(.text) for _printf_int_dec
    event_groups.o(i.vEventGroupDelete) refers to _printf_str.o(.text) for _printf_str
    event_groups.o(i.vEventGroupDelete) refers to tasks.o(i.vTaskSuspendAll) for vTaskSuspendAll
    event_groups.o(i.vEventGroupDelete) refers to noretval__2printf.o(.text) for __2printf
    event_groups.o(i.vEventGroupDelete) refers to tasks.o(i.vTaskRemoveFromUnorderedEventList) for vTaskRemoveFromUnorderedEventList
    event_groups.o(i.vEventGroupDelete) refers to heap_4.o(i.vPortFree) for vPortFree
    event_groups.o(i.vEventGroupDelete) refers to tasks.o(i.xTaskResumeAll) for xTaskResumeAll
    event_groups.o(i.vEventGroupSetBitsCallback) refers to event_groups.o(i.xEventGroupSetBits) for xEventGroupSetBits
    event_groups.o(i.xEventGroupClearBits) refers to _printf_percent.o(.ARM.Collect$$_printf_percent$$00000000) for _printf_percent
    event_groups.o(i.xEventGroupClearBits) refers to _printf_d.o(.ARM.Collect$$_printf_percent$$00000009) for _printf_d
    event_groups.o(i.xEventGroupClearBits) refers to _printf_s.o(.ARM.Collect$$_printf_percent$$00000014) for _printf_s
    event_groups.o(i.xEventGroupClearBits) refers to _printf_dec.o(.text) for _printf_int_dec
    event_groups.o(i.xEventGroupClearBits) refers to _printf_str.o(.text) for _printf_str
    event_groups.o(i.xEventGroupClearBits) refers to noretval__2printf.o(.text) for __2printf
    event_groups.o(i.xEventGroupClearBits) refers to port.o(i.vPortEnterCritical) for vPortEnterCritical
    event_groups.o(i.xEventGroupClearBits) refers to port.o(i.vPortExitCritical) for vPortExitCritical
    event_groups.o(i.xEventGroupCreate) refers to heap_4.o(i.pvPortMalloc) for pvPortMalloc
    event_groups.o(i.xEventGroupCreate) refers to list.o(i.vListInitialise) for vListInitialise
    event_groups.o(i.xEventGroupSetBits) refers to _printf_percent.o(.ARM.Collect$$_printf_percent$$00000000) for _printf_percent
    event_groups.o(i.xEventGroupSetBits) refers to _printf_d.o(.ARM.Collect$$_printf_percent$$00000009) for _printf_d
    event_groups.o(i.xEventGroupSetBits) refers to _printf_s.o(.ARM.Collect$$_printf_percent$$00000014) for _printf_s
    event_groups.o(i.xEventGroupSetBits) refers to _printf_dec.o(.text) for _printf_int_dec
    event_groups.o(i.xEventGroupSetBits) refers to _printf_str.o(.text) for _printf_str
    event_groups.o(i.xEventGroupSetBits) refers to noretval__2printf.o(.text) for __2printf
    event_groups.o(i.xEventGroupSetBits) refers to tasks.o(i.vTaskSuspendAll) for vTaskSuspendAll
    event_groups.o(i.xEventGroupSetBits) refers to tasks.o(i.vTaskRemoveFromUnorderedEventList) for vTaskRemoveFromUnorderedEventList
    event_groups.o(i.xEventGroupSetBits) refers to tasks.o(i.xTaskResumeAll) for xTaskResumeAll
    event_groups.o(i.xEventGroupSync) refers to _printf_percent.o(.ARM.Collect$$_printf_percent$$00000000) for _printf_percent
    event_groups.o(i.xEventGroupSync) refers to _printf_d.o(.ARM.Collect$$_printf_percent$$00000009) for _printf_d
    event_groups.o(i.xEventGroupSync) refers to _printf_s.o(.ARM.Collect$$_printf_percent$$00000014) for _printf_s
    event_groups.o(i.xEventGroupSync) refers to _printf_dec.o(.text) for _printf_int_dec
    event_groups.o(i.xEventGroupSync) refers to _printf_str.o(.text) for _printf_str
    event_groups.o(i.xEventGroupSync) refers to noretval__2printf.o(.text) for __2printf
    event_groups.o(i.xEventGroupSync) refers to tasks.o(i.xTaskGetSchedulerState) for xTaskGetSchedulerState
    event_groups.o(i.xEventGroupSync) refers to tasks.o(i.vTaskSuspendAll) for vTaskSuspendAll
    event_groups.o(i.xEventGroupSync) refers to event_groups.o(i.xEventGroupSetBits) for xEventGroupSetBits
    event_groups.o(i.xEventGroupSync) refers to tasks.o(i.vTaskPlaceOnUnorderedEventList) for vTaskPlaceOnUnorderedEventList
    event_groups.o(i.xEventGroupSync) refers to tasks.o(i.xTaskResumeAll) for xTaskResumeAll
    event_groups.o(i.xEventGroupSync) refers to tasks.o(i.uxTaskResetEventItemValue) for uxTaskResetEventItemValue
    event_groups.o(i.xEventGroupSync) refers to port.o(i.vPortEnterCritical) for vPortEnterCritical
    event_groups.o(i.xEventGroupSync) refers to port.o(i.vPortExitCritical) for vPortExitCritical
    event_groups.o(i.xEventGroupWaitBits) refers to _printf_percent.o(.ARM.Collect$$_printf_percent$$00000000) for _printf_percent
    event_groups.o(i.xEventGroupWaitBits) refers to _printf_d.o(.ARM.Collect$$_printf_percent$$00000009) for _printf_d
    event_groups.o(i.xEventGroupWaitBits) refers to _printf_s.o(.ARM.Collect$$_printf_percent$$00000014) for _printf_s
    event_groups.o(i.xEventGroupWaitBits) refers to _printf_dec.o(.text) for _printf_int_dec
    event_groups.o(i.xEventGroupWaitBits) refers to _printf_str.o(.text) for _printf_str
    event_groups.o(i.xEventGroupWaitBits) refers to noretval__2printf.o(.text) for __2printf
    event_groups.o(i.xEventGroupWaitBits) refers to tasks.o(i.xTaskGetSchedulerState) for xTaskGetSchedulerState
    event_groups.o(i.xEventGroupWaitBits) refers to tasks.o(i.vTaskSuspendAll) for vTaskSuspendAll
    event_groups.o(i.xEventGroupWaitBits) refers to event_groups.o(i.prvTestWaitCondition) for prvTestWaitCondition
    event_groups.o(i.xEventGroupWaitBits) refers to tasks.o(i.vTaskPlaceOnUnorderedEventList) for vTaskPlaceOnUnorderedEventList
    event_groups.o(i.xEventGroupWaitBits) refers to tasks.o(i.xTaskResumeAll) for xTaskResumeAll
    event_groups.o(i.xEventGroupWaitBits) refers to tasks.o(i.uxTaskResetEventItemValue) for uxTaskResetEventItemValue
    event_groups.o(i.xEventGroupWaitBits) refers to port.o(i.vPortEnterCritical) for vPortEnterCritical
    event_groups.o(i.xEventGroupWaitBits) refers to port.o(i.vPortExitCritical) for vPortExitCritical
    queue.o(i.pcQueueGetName) refers to queue.o(.bss) for xQueueRegistry
    queue.o(i.prvCopyDataFromQueue) refers to rt_memcpy_v6.o(.text) for __aeabi_memcpy
    queue.o(i.prvCopyDataToQueue) refers to tasks.o(i.xTaskPriorityDisinherit) for xTaskPriorityDisinherit
    queue.o(i.prvCopyDataToQueue) refers to rt_memcpy_v6.o(.text) for __aeabi_memcpy
    queue.o(i.prvInitialiseMutex) refers to queue.o(i.xQueueGenericSend) for xQueueGenericSend
    queue.o(i.prvInitialiseNewQueue) refers to queue.o(i.xQueueGenericReset) for xQueueGenericReset
    queue.o(i.prvIsQueueEmpty) refers to port.o(i.vPortEnterCritical) for vPortEnterCritical
    queue.o(i.prvIsQueueEmpty) refers to port.o(i.vPortExitCritical) for vPortExitCritical
    queue.o(i.prvIsQueueFull) refers to port.o(i.vPortEnterCritical) for vPortEnterCritical
    queue.o(i.prvIsQueueFull) refers to port.o(i.vPortExitCritical) for vPortExitCritical
    queue.o(i.prvUnlockQueue) refers to port.o(i.vPortEnterCritical) for vPortEnterCritical
    queue.o(i.prvUnlockQueue) refers to tasks.o(i.xTaskRemoveFromEventList) for xTaskRemoveFromEventList
    queue.o(i.prvUnlockQueue) refers to tasks.o(i.vTaskMissedYield) for vTaskMissedYield
    queue.o(i.prvUnlockQueue) refers to port.o(i.vPortExitCritical) for vPortExitCritical
    queue.o(i.uxQueueMessagesWaiting) refers to _printf_percent.o(.ARM.Collect$$_printf_percent$$00000000) for _printf_percent
    queue.o(i.uxQueueMessagesWaiting) refers to _printf_d.o(.ARM.Collect$$_printf_percent$$00000009) for _printf_d
    queue.o(i.uxQueueMessagesWaiting) refers to _printf_s.o(.ARM.Collect$$_printf_percent$$00000014) for _printf_s
    queue.o(i.uxQueueMessagesWaiting) refers to _printf_dec.o(.text) for _printf_int_dec
    queue.o(i.uxQueueMessagesWaiting) refers to _printf_str.o(.text) for _printf_str
    queue.o(i.uxQueueMessagesWaiting) refers to noretval__2printf.o(.text) for __2printf
    queue.o(i.uxQueueMessagesWaiting) refers to port.o(i.vPortEnterCritical) for vPortEnterCritical
    queue.o(i.uxQueueMessagesWaiting) refers to port.o(i.vPortExitCritical) for vPortExitCritical
    queue.o(i.uxQueueMessagesWaitingFromISR) refers to _printf_percent.o(.ARM.Collect$$_printf_percent$$00000000) for _printf_percent
    queue.o(i.uxQueueMessagesWaitingFromISR) refers to _printf_d.o(.ARM.Collect$$_printf_percent$$00000009) for _printf_d
    queue.o(i.uxQueueMessagesWaitingFromISR) refers to _printf_s.o(.ARM.Collect$$_printf_percent$$00000014) for _printf_s
    queue.o(i.uxQueueMessagesWaitingFromISR) refers to _printf_dec.o(.text) for _printf_int_dec
    queue.o(i.uxQueueMessagesWaitingFromISR) refers to _printf_str.o(.text) for _printf_str
    queue.o(i.uxQueueMessagesWaitingFromISR) refers to noretval__2printf.o(.text) for __2printf
    queue.o(i.uxQueueSpacesAvailable) refers to _printf_percent.o(.ARM.Collect$$_printf_percent$$00000000) for _printf_percent
    queue.o(i.uxQueueSpacesAvailable) refers to _printf_d.o(.ARM.Collect$$_printf_percent$$00000009) for _printf_d
    queue.o(i.uxQueueSpacesAvailable) refers to _printf_s.o(.ARM.Collect$$_printf_percent$$00000014) for _printf_s
    queue.o(i.uxQueueSpacesAvailable) refers to _printf_dec.o(.text) for _printf_int_dec
    queue.o(i.uxQueueSpacesAvailable) refers to _printf_str.o(.text) for _printf_str
    queue.o(i.uxQueueSpacesAvailable) refers to noretval__2printf.o(.text) for __2printf
    queue.o(i.uxQueueSpacesAvailable) refers to port.o(i.vPortEnterCritical) for vPortEnterCritical
    queue.o(i.uxQueueSpacesAvailable) refers to port.o(i.vPortExitCritical) for vPortExitCritical
    queue.o(i.vQueueAddToRegistry) refers to queue.o(.bss) for xQueueRegistry
    queue.o(i.vQueueDelete) refers to _printf_percent.o(.ARM.Collect$$_printf_percent$$00000000) for _printf_percent
    queue.o(i.vQueueDelete) refers to _printf_d.o(.ARM.Collect$$_printf_percent$$00000009) for _printf_d
    queue.o(i.vQueueDelete) refers to _printf_s.o(.ARM.Collect$$_printf_percent$$00000014) for _printf_s
    queue.o(i.vQueueDelete) refers to _printf_dec.o(.text) for _printf_int_dec
    queue.o(i.vQueueDelete) refers to _printf_str.o(.text) for _printf_str
    queue.o(i.vQueueDelete) refers to noretval__2printf.o(.text) for __2printf
    queue.o(i.vQueueDelete) refers to queue.o(i.vQueueUnregisterQueue) for vQueueUnregisterQueue
    queue.o(i.vQueueDelete) refers to heap_4.o(i.vPortFree) for vPortFree
    queue.o(i.vQueueUnregisterQueue) refers to queue.o(.bss) for xQueueRegistry
    queue.o(i.xQueueCreateCountingSemaphore) refers to _printf_percent.o(.ARM.Collect$$_printf_percent$$00000000) for _printf_percent
    queue.o(i.xQueueCreateCountingSemaphore) refers to _printf_d.o(.ARM.Collect$$_printf_percent$$00000009) for _printf_d
    queue.o(i.xQueueCreateCountingSemaphore) refers to _printf_s.o(.ARM.Collect$$_printf_percent$$00000014) for _printf_s
    queue.o(i.xQueueCreateCountingSemaphore) refers to _printf_dec.o(.text) for _printf_int_dec
    queue.o(i.xQueueCreateCountingSemaphore) refers to _printf_str.o(.text) for _printf_str
    queue.o(i.xQueueCreateCountingSemaphore) refers to noretval__2printf.o(.text) for __2printf
    queue.o(i.xQueueCreateCountingSemaphore) refers to queue.o(i.xQueueGenericCreate) for xQueueGenericCreate
    queue.o(i.xQueueCreateMutex) refers to queue.o(i.xQueueGenericCreate) for xQueueGenericCreate
    queue.o(i.xQueueCreateMutex) refers to queue.o(i.prvInitialiseMutex) for prvInitialiseMutex
    queue.o(i.xQueueGenericCreate) refers to _printf_percent.o(.ARM.Collect$$_printf_percent$$00000000) for _printf_percent
    queue.o(i.xQueueGenericCreate) refers to _printf_d.o(.ARM.Collect$$_printf_percent$$00000009) for _printf_d
    queue.o(i.xQueueGenericCreate) refers to _printf_s.o(.ARM.Collect$$_printf_percent$$00000014) for _printf_s
    queue.o(i.xQueueGenericCreate) refers to _printf_dec.o(.text) for _printf_int_dec
    queue.o(i.xQueueGenericCreate) refers to _printf_str.o(.text) for _printf_str
    queue.o(i.xQueueGenericCreate) refers to noretval__2printf.o(.text) for __2printf
    queue.o(i.xQueueGenericCreate) refers to heap_4.o(i.pvPortMalloc) for pvPortMalloc
    queue.o(i.xQueueGenericCreate) refers to queue.o(i.prvInitialiseNewQueue) for prvInitialiseNewQueue
    queue.o(i.xQueueGenericReset) refers to _printf_percent.o(.ARM.Collect$$_printf_percent$$00000000) for _printf_percent
    queue.o(i.xQueueGenericReset) refers to _printf_d.o(.ARM.Collect$$_printf_percent$$00000009) for _printf_d
    queue.o(i.xQueueGenericReset) refers to _printf_s.o(.ARM.Collect$$_printf_percent$$00000014) for _printf_s
    queue.o(i.xQueueGenericReset) refers to _printf_dec.o(.text) for _printf_int_dec
    queue.o(i.xQueueGenericReset) refers to _printf_str.o(.text) for _printf_str
    queue.o(i.xQueueGenericReset) refers to noretval__2printf.o(.text) for __2printf
    queue.o(i.xQueueGenericReset) refers to port.o(i.vPortEnterCritical) for vPortEnterCritical
    queue.o(i.xQueueGenericReset) refers to tasks.o(i.xTaskRemoveFromEventList) for xTaskRemoveFromEventList
    queue.o(i.xQueueGenericReset) refers to list.o(i.vListInitialise) for vListInitialise
    queue.o(i.xQueueGenericReset) refers to port.o(i.vPortExitCritical) for vPortExitCritical
    queue.o(i.xQueueGenericSend) refers to _printf_percent.o(.ARM.Collect$$_printf_percent$$00000000) for _printf_percent
    queue.o(i.xQueueGenericSend) refers to _printf_d.o(.ARM.Collect$$_printf_percent$$00000009) for _printf_d
    queue.o(i.xQueueGenericSend) refers to _printf_s.o(.ARM.Collect$$_printf_percent$$00000014) for _printf_s
    queue.o(i.xQueueGenericSend) refers to _printf_dec.o(.text) for _printf_int_dec
    queue.o(i.xQueueGenericSend) refers to _printf_str.o(.text) for _printf_str
    queue.o(i.xQueueGenericSend) refers to noretval__2printf.o(.text) for __2printf
    queue.o(i.xQueueGenericSend) refers to tasks.o(i.xTaskGetSchedulerState) for xTaskGetSchedulerState
    queue.o(i.xQueueGenericSend) refers to port.o(i.vPortEnterCritical) for vPortEnterCritical
    queue.o(i.xQueueGenericSend) refers to queue.o(i.prvCopyDataToQueue) for prvCopyDataToQueue
    queue.o(i.xQueueGenericSend) refers to tasks.o(i.xTaskRemoveFromEventList) for xTaskRemoveFromEventList
    queue.o(i.xQueueGenericSend) refers to port.o(i.vPortExitCritical) for vPortExitCritical
    queue.o(i.xQueueGenericSend) refers to tasks.o(i.vTaskInternalSetTimeOutState) for vTaskInternalSetTimeOutState
    queue.o(i.xQueueGenericSend) refers to tasks.o(i.vTaskSuspendAll) for vTaskSuspendAll
    queue.o(i.xQueueGenericSend) refers to tasks.o(i.xTaskCheckForTimeOut) for xTaskCheckForTimeOut
    queue.o(i.xQueueGenericSend) refers to queue.o(i.prvIsQueueFull) for prvIsQueueFull
    queue.o(i.xQueueGenericSend) refers to tasks.o(i.vTaskPlaceOnEventList) for vTaskPlaceOnEventList
    queue.o(i.xQueueGenericSend) refers to queue.o(i.prvUnlockQueue) for prvUnlockQueue
    queue.o(i.xQueueGenericSend) refers to tasks.o(i.xTaskResumeAll) for xTaskResumeAll
    queue.o(i.xQueueGenericSendFromISR) refers to _printf_percent.o(.ARM.Collect$$_printf_percent$$00000000) for _printf_percent
    queue.o(i.xQueueGenericSendFromISR) refers to _printf_d.o(.ARM.Collect$$_printf_percent$$00000009) for _printf_d
    queue.o(i.xQueueGenericSendFromISR) refers to _printf_s.o(.ARM.Collect$$_printf_percent$$00000014) for _printf_s
    queue.o(i.xQueueGenericSendFromISR) refers to _printf_dec.o(.text) for _printf_int_dec
    queue.o(i.xQueueGenericSendFromISR) refers to _printf_str.o(.text) for _printf_str
    queue.o(i.xQueueGenericSendFromISR) refers to noretval__2printf.o(.text) for __2printf
    queue.o(i.xQueueGenericSendFromISR) refers to port.o(i.vPortValidateInterruptPriority) for vPortValidateInterruptPriority
    queue.o(i.xQueueGenericSendFromISR) refers to queue.o(i.prvCopyDataToQueue) for prvCopyDataToQueue
    queue.o(i.xQueueGenericSendFromISR) refers to tasks.o(i.xTaskRemoveFromEventList) for xTaskRemoveFromEventList
    queue.o(i.xQueueGiveFromISR) refers to _printf_percent.o(.ARM.Collect$$_printf_percent$$00000000) for _printf_percent
    queue.o(i.xQueueGiveFromISR) refers to _printf_d.o(.ARM.Collect$$_printf_percent$$00000009) for _printf_d
    queue.o(i.xQueueGiveFromISR) refers to _printf_s.o(.ARM.Collect$$_printf_percent$$00000014) for _printf_s
    queue.o(i.xQueueGiveFromISR) refers to _printf_dec.o(.text) for _printf_int_dec
    queue.o(i.xQueueGiveFromISR) refers to _printf_str.o(.text) for _printf_str
    queue.o(i.xQueueGiveFromISR) refers to noretval__2printf.o(.text) for __2printf
    queue.o(i.xQueueGiveFromISR) refers to port.o(i.vPortValidateInterruptPriority) for vPortValidateInterruptPriority
    queue.o(i.xQueueGiveFromISR) refers to tasks.o(i.xTaskRemoveFromEventList) for xTaskRemoveFromEventList
    queue.o(i.xQueueIsQueueEmptyFromISR) refers to _printf_percent.o(.ARM.Collect$$_printf_percent$$00000000) for _printf_percent
    queue.o(i.xQueueIsQueueEmptyFromISR) refers to _printf_d.o(.ARM.Collect$$_printf_percent$$00000009) for _printf_d
    queue.o(i.xQueueIsQueueEmptyFromISR) refers to _printf_s.o(.ARM.Collect$$_printf_percent$$00000014) for _printf_s
    queue.o(i.xQueueIsQueueEmptyFromISR) refers to _printf_dec.o(.text) for _printf_int_dec
    queue.o(i.xQueueIsQueueEmptyFromISR) refers to _printf_str.o(.text) for _printf_str
    queue.o(i.xQueueIsQueueEmptyFromISR) refers to noretval__2printf.o(.text) for __2printf
    queue.o(i.xQueueIsQueueFullFromISR) refers to _printf_percent.o(.ARM.Collect$$_printf_percent$$00000000) for _printf_percent
    queue.o(i.xQueueIsQueueFullFromISR) refers to _printf_d.o(.ARM.Collect$$_printf_percent$$00000009) for _printf_d
    queue.o(i.xQueueIsQueueFullFromISR) refers to _printf_s.o(.ARM.Collect$$_printf_percent$$00000014) for _printf_s
    queue.o(i.xQueueIsQueueFullFromISR) refers to _printf_dec.o(.text) for _printf_int_dec
    queue.o(i.xQueueIsQueueFullFromISR) refers to _printf_str.o(.text) for _printf_str
    queue.o(i.xQueueIsQueueFullFromISR) refers to noretval__2printf.o(.text) for __2printf
    queue.o(i.xQueuePeek) refers to _printf_percent.o(.ARM.Collect$$_printf_percent$$00000000) for _printf_percent
    queue.o(i.xQueuePeek) refers to _printf_d.o(.ARM.Collect$$_printf_percent$$00000009) for _printf_d
    queue.o(i.xQueuePeek) refers to _printf_s.o(.ARM.Collect$$_printf_percent$$00000014) for _printf_s
    queue.o(i.xQueuePeek) refers to _printf_dec.o(.text) for _printf_int_dec
    queue.o(i.xQueuePeek) refers to _printf_str.o(.text) for _printf_str
    queue.o(i.xQueuePeek) refers to noretval__2printf.o(.text) for __2printf
    queue.o(i.xQueuePeek) refers to tasks.o(i.xTaskGetSchedulerState) for xTaskGetSchedulerState
    queue.o(i.xQueuePeek) refers to port.o(i.vPortEnterCritical) for vPortEnterCritical
    queue.o(i.xQueuePeek) refers to queue.o(i.prvCopyDataFromQueue) for prvCopyDataFromQueue
    queue.o(i.xQueuePeek) refers to tasks.o(i.xTaskRemoveFromEventList) for xTaskRemoveFromEventList
    queue.o(i.xQueuePeek) refers to port.o(i.vPortExitCritical) for vPortExitCritical
    queue.o(i.xQueuePeek) refers to tasks.o(i.vTaskInternalSetTimeOutState) for vTaskInternalSetTimeOutState
    queue.o(i.xQueuePeek) refers to tasks.o(i.vTaskSuspendAll) for vTaskSuspendAll
    queue.o(i.xQueuePeek) refers to tasks.o(i.xTaskCheckForTimeOut) for xTaskCheckForTimeOut
    queue.o(i.xQueuePeek) refers to queue.o(i.prvIsQueueEmpty) for prvIsQueueEmpty
    queue.o(i.xQueuePeek) refers to tasks.o(i.vTaskPlaceOnEventList) for vTaskPlaceOnEventList
    queue.o(i.xQueuePeek) refers to queue.o(i.prvUnlockQueue) for prvUnlockQueue
    queue.o(i.xQueuePeek) refers to tasks.o(i.xTaskResumeAll) for xTaskResumeAll
    queue.o(i.xQueuePeekFromISR) refers to _printf_percent.o(.ARM.Collect$$_printf_percent$$00000000) for _printf_percent
    queue.o(i.xQueuePeekFromISR) refers to _printf_d.o(.ARM.Collect$$_printf_percent$$00000009) for _printf_d
    queue.o(i.xQueuePeekFromISR) refers to _printf_s.o(.ARM.Collect$$_printf_percent$$00000014) for _printf_s
    queue.o(i.xQueuePeekFromISR) refers to _printf_dec.o(.text) for _printf_int_dec
    queue.o(i.xQueuePeekFromISR) refers to _printf_str.o(.text) for _printf_str
    queue.o(i.xQueuePeekFromISR) refers to noretval__2printf.o(.text) for __2printf
    queue.o(i.xQueuePeekFromISR) refers to port.o(i.vPortValidateInterruptPriority) for vPortValidateInterruptPriority
    queue.o(i.xQueuePeekFromISR) refers to queue.o(i.prvCopyDataFromQueue) for prvCopyDataFromQueue
    queue.o(i.xQueueReceive) refers to _printf_percent.o(.ARM.Collect$$_printf_percent$$00000000) for _printf_percent
    queue.o(i.xQueueReceive) refers to _printf_d.o(.ARM.Collect$$_printf_percent$$00000009) for _printf_d
    queue.o(i.xQueueReceive) refers to _printf_s.o(.ARM.Collect$$_printf_percent$$00000014) for _printf_s
    queue.o(i.xQueueReceive) refers to _printf_dec.o(.text) for _printf_int_dec
    queue.o(i.xQueueReceive) refers to _printf_str.o(.text) for _printf_str
    queue.o(i.xQueueReceive) refers to noretval__2printf.o(.text) for __2printf
    queue.o(i.xQueueReceive) refers to tasks.o(i.xTaskGetSchedulerState) for xTaskGetSchedulerState
    queue.o(i.xQueueReceive) refers to port.o(i.vPortEnterCritical) for vPortEnterCritical
    queue.o(i.xQueueReceive) refers to queue.o(i.prvCopyDataFromQueue) for prvCopyDataFromQueue
    queue.o(i.xQueueReceive) refers to tasks.o(i.xTaskRemoveFromEventList) for xTaskRemoveFromEventList
    queue.o(i.xQueueReceive) refers to port.o(i.vPortExitCritical) for vPortExitCritical
    queue.o(i.xQueueReceive) refers to tasks.o(i.vTaskInternalSetTimeOutState) for vTaskInternalSetTimeOutState
    queue.o(i.xQueueReceive) refers to tasks.o(i.vTaskSuspendAll) for vTaskSuspendAll
    queue.o(i.xQueueReceive) refers to tasks.o(i.xTaskCheckForTimeOut) for xTaskCheckForTimeOut
    queue.o(i.xQueueReceive) refers to queue.o(i.prvIsQueueEmpty) for prvIsQueueEmpty
    queue.o(i.xQueueReceive) refers to tasks.o(i.vTaskPlaceOnEventList) for vTaskPlaceOnEventList
    queue.o(i.xQueueReceive) refers to queue.o(i.prvUnlockQueue) for prvUnlockQueue
    queue.o(i.xQueueReceive) refers to tasks.o(i.xTaskResumeAll) for xTaskResumeAll
    queue.o(i.xQueueReceiveFromISR) refers to _printf_percent.o(.ARM.Collect$$_printf_percent$$00000000) for _printf_percent
    queue.o(i.xQueueReceiveFromISR) refers to _printf_d.o(.ARM.Collect$$_printf_percent$$00000009) for _printf_d
    queue.o(i.xQueueReceiveFromISR) refers to _printf_s.o(.ARM.Collect$$_printf_percent$$00000014) for _printf_s
    queue.o(i.xQueueReceiveFromISR) refers to _printf_dec.o(.text) for _printf_int_dec
    queue.o(i.xQueueReceiveFromISR) refers to _printf_str.o(.text) for _printf_str
    queue.o(i.xQueueReceiveFromISR) refers to noretval__2printf.o(.text) for __2printf
    queue.o(i.xQueueReceiveFromISR) refers to port.o(i.vPortValidateInterruptPriority) for vPortValidateInterruptPriority
    queue.o(i.xQueueReceiveFromISR) refers to queue.o(i.prvCopyDataFromQueue) for prvCopyDataFromQueue
    queue.o(i.xQueueReceiveFromISR) refers to tasks.o(i.xTaskRemoveFromEventList) for xTaskRemoveFromEventList
    queue.o(i.xQueueSemaphoreTake) refers to _printf_percent.o(.ARM.Collect$$_printf_percent$$00000000) for _printf_percent
    queue.o(i.xQueueSemaphoreTake) refers to _printf_d.o(.ARM.Collect$$_printf_percent$$00000009) for _printf_d
    queue.o(i.xQueueSemaphoreTake) refers to _printf_s.o(.ARM.Collect$$_printf_percent$$00000014) for _printf_s
    queue.o(i.xQueueSemaphoreTake) refers to _printf_dec.o(.text) for _printf_int_dec
    queue.o(i.xQueueSemaphoreTake) refers to _printf_str.o(.text) for _printf_str
    queue.o(i.xQueueSemaphoreTake) refers to noretval__2printf.o(.text) for __2printf
    queue.o(i.xQueueSemaphoreTake) refers to tasks.o(i.xTaskGetSchedulerState) for xTaskGetSchedulerState
    queue.o(i.xQueueSemaphoreTake) refers to port.o(i.vPortEnterCritical) for vPortEnterCritical
    queue.o(i.xQueueSemaphoreTake) refers to tasks.o(i.pvTaskIncrementMutexHeldCount) for pvTaskIncrementMutexHeldCount
    queue.o(i.xQueueSemaphoreTake) refers to tasks.o(i.xTaskRemoveFromEventList) for xTaskRemoveFromEventList
    queue.o(i.xQueueSemaphoreTake) refers to port.o(i.vPortExitCritical) for vPortExitCritical
    queue.o(i.xQueueSemaphoreTake) refers to tasks.o(i.vTaskInternalSetTimeOutState) for vTaskInternalSetTimeOutState
    queue.o(i.xQueueSemaphoreTake) refers to tasks.o(i.vTaskSuspendAll) for vTaskSuspendAll
    queue.o(i.xQueueSemaphoreTake) refers to tasks.o(i.xTaskCheckForTimeOut) for xTaskCheckForTimeOut
    queue.o(i.xQueueSemaphoreTake) refers to queue.o(i.prvIsQueueEmpty) for prvIsQueueEmpty
    queue.o(i.xQueueSemaphoreTake) refers to tasks.o(i.xTaskPriorityInherit) for xTaskPriorityInherit
    queue.o(i.xQueueSemaphoreTake) refers to tasks.o(i.vTaskPlaceOnEventList) for vTaskPlaceOnEventList
    queue.o(i.xQueueSemaphoreTake) refers to queue.o(i.prvUnlockQueue) for prvUnlockQueue
    queue.o(i.xQueueSemaphoreTake) refers to tasks.o(i.xTaskResumeAll) for xTaskResumeAll
    queue.o(i.xQueueSemaphoreTake) refers to queue.o(i.prvGetDisinheritPriorityAfterTimeout) for prvGetDisinheritPriorityAfterTimeout
    queue.o(i.xQueueSemaphoreTake) refers to tasks.o(i.vTaskPriorityDisinheritAfterTimeout) for vTaskPriorityDisinheritAfterTimeout
    tasks.o(i.eTaskGetState) refers to _printf_percent.o(.ARM.Collect$$_printf_percent$$00000000) for _printf_percent
    tasks.o(i.eTaskGetState) refers to _printf_d.o(.ARM.Collect$$_printf_percent$$00000009) for _printf_d
    tasks.o(i.eTaskGetState) refers to _printf_s.o(.ARM.Collect$$_printf_percent$$00000014) for _printf_s
    tasks.o(i.eTaskGetState) refers to _printf_dec.o(.text) for _printf_int_dec
    tasks.o(i.eTaskGetState) refers to _printf_str.o(.text) for _printf_str
    tasks.o(i.eTaskGetState) refers to noretval__2printf.o(.text) for __2printf
    tasks.o(i.eTaskGetState) refers to port.o(i.vPortEnterCritical) for vPortEnterCritical
    tasks.o(i.eTaskGetState) refers to port.o(i.vPortExitCritical) for vPortExitCritical
    tasks.o(i.eTaskGetState) refers to tasks.o(.data) for pxCurrentTCB
    tasks.o(i.eTaskGetState) refers to tasks.o(.bss) for xSuspendedTaskList
    tasks.o(i.pcTaskGetName) refers to _printf_percent.o(.ARM.Collect$$_printf_percent$$00000000) for _printf_percent
    tasks.o(i.pcTaskGetName) refers to _printf_d.o(.ARM.Collect$$_printf_percent$$00000009) for _printf_d
    tasks.o(i.pcTaskGetName) refers to _printf_s.o(.ARM.Collect$$_printf_percent$$00000014) for _printf_s
    tasks.o(i.pcTaskGetName) refers to _printf_dec.o(.text) for _printf_int_dec
    tasks.o(i.pcTaskGetName) refers to _printf_str.o(.text) for _printf_str
    tasks.o(i.pcTaskGetName) refers to noretval__2printf.o(.text) for __2printf
    tasks.o(i.pcTaskGetName) refers to tasks.o(.data) for pxCurrentTCB
    tasks.o(i.prvAddCurrentTaskToDelayedList) refers to list.o(i.uxListRemove) for uxListRemove
    tasks.o(i.prvAddCurrentTaskToDelayedList) refers to list.o(i.vListInsertEnd) for vListInsertEnd
    tasks.o(i.prvAddCurrentTaskToDelayedList) refers to list.o(i.vListInsert) for vListInsert
    tasks.o(i.prvAddCurrentTaskToDelayedList) refers to tasks.o(.data) for xTickCount
    tasks.o(i.prvAddCurrentTaskToDelayedList) refers to tasks.o(.bss) for xSuspendedTaskList
    tasks.o(i.prvAddNewTaskToReadyList) refers to port.o(i.vPortEnterCritical) for vPortEnterCritical
    tasks.o(i.prvAddNewTaskToReadyList) refers to tasks.o(i.prvInitialiseTaskLists) for prvInitialiseTaskLists
    tasks.o(i.prvAddNewTaskToReadyList) refers to list.o(i.vListInsertEnd) for vListInsertEnd
    tasks.o(i.prvAddNewTaskToReadyList) refers to port.o(i.vPortExitCritical) for vPortExitCritical
    tasks.o(i.prvAddNewTaskToReadyList) refers to tasks.o(.data) for uxCurrentNumberOfTasks
    tasks.o(i.prvAddNewTaskToReadyList) refers to tasks.o(.bss) for pxReadyTasksLists
    tasks.o(i.prvCheckTasksWaitingTermination) refers to port.o(i.vPortEnterCritical) for vPortEnterCritical
    tasks.o(i.prvCheckTasksWaitingTermination) refers to list.o(i.uxListRemove) for uxListRemove
    tasks.o(i.prvCheckTasksWaitingTermination) refers to port.o(i.vPortExitCritical) for vPortExitCritical
    tasks.o(i.prvCheckTasksWaitingTermination) refers to tasks.o(i.prvDeleteTCB) for prvDeleteTCB
    tasks.o(i.prvCheckTasksWaitingTermination) refers to tasks.o(.bss) for xTasksWaitingTermination
    tasks.o(i.prvCheckTasksWaitingTermination) refers to tasks.o(.data) for uxCurrentNumberOfTasks
    tasks.o(i.prvDeleteTCB) refers to heap_4.o(i.vPortFree) for vPortFree
    tasks.o(i.prvIdleTask) refers to tasks.o(i.prvCheckTasksWaitingTermination) for prvCheckTasksWaitingTermination
    tasks.o(i.prvIdleTask) refers to tasks.o(.bss) for pxReadyTasksLists
    tasks.o(i.prvInitialiseNewTask) refers to _printf_percent.o(.ARM.Collect$$_printf_percent$$00000000) for _printf_percent
    tasks.o(i.prvInitialiseNewTask) refers to _printf_d.o(.ARM.Collect$$_printf_percent$$00000009) for _printf_d
    tasks.o(i.prvInitialiseNewTask) refers to _printf_s.o(.ARM.Collect$$_printf_percent$$00000014) for _printf_s
    tasks.o(i.prvInitialiseNewTask) refers to _printf_dec.o(.text) for _printf_int_dec
    tasks.o(i.prvInitialiseNewTask) refers to _printf_str.o(.text) for _printf_str
    tasks.o(i.prvInitialiseNewTask) refers to noretval__2printf.o(.text) for __2printf
    tasks.o(i.prvInitialiseNewTask) refers to aeabi_memset.o(.text) for __aeabi_memset
    tasks.o(i.prvInitialiseNewTask) refers to list.o(i.vListInitialiseItem) for vListInitialiseItem
    tasks.o(i.prvInitialiseNewTask) refers to port.o(i.pxPortInitialiseStack) for pxPortInitialiseStack
    tasks.o(i.prvInitialiseTaskLists) refers to list.o(i.vListInitialise) for vListInitialise
    tasks.o(i.prvInitialiseTaskLists) refers to tasks.o(.bss) for pxReadyTasksLists
    tasks.o(i.prvInitialiseTaskLists) refers to tasks.o(.data) for pxDelayedTaskList
    tasks.o(i.prvListTasksWithinSingleList) refers to tasks.o(i.vTaskGetInfo) for vTaskGetInfo
    tasks.o(i.prvResetNextTaskUnblockTime) refers to tasks.o(.data) for pxDelayedTaskList
    tasks.o(i.prvTaskIsTaskSuspended) refers to _printf_percent.o(.ARM.Collect$$_printf_percent$$00000000) for _printf_percent
    tasks.o(i.prvTaskIsTaskSuspended) refers to _printf_d.o(.ARM.Collect$$_printf_percent$$00000009) for _printf_d
    tasks.o(i.prvTaskIsTaskSuspended) refers to _printf_s.o(.ARM.Collect$$_printf_percent$$00000014) for _printf_s
    tasks.o(i.prvTaskIsTaskSuspended) refers to _printf_dec.o(.text) for _printf_int_dec
    tasks.o(i.prvTaskIsTaskSuspended) refers to _printf_str.o(.text) for _printf_str
    tasks.o(i.prvTaskIsTaskSuspended) refers to noretval__2printf.o(.text) for __2printf
    tasks.o(i.prvTaskIsTaskSuspended) refers to tasks.o(.bss) for xSuspendedTaskList
    tasks.o(i.prvWriteNameToBuffer) refers to strcpy.o(.text) for strcpy
    tasks.o(i.prvWriteNameToBuffer) refers to strlen.o(.text) for strlen
    tasks.o(i.pvTaskIncrementMutexHeldCount) refers to tasks.o(.data) for pxCurrentTCB
    tasks.o(i.ulTaskNotifyTake) refers to port.o(i.vPortEnterCritical) for vPortEnterCritical
    tasks.o(i.ulTaskNotifyTake) refers to tasks.o(i.prvAddCurrentTaskToDelayedList) for prvAddCurrentTaskToDelayedList
    tasks.o(i.ulTaskNotifyTake) refers to port.o(i.vPortExitCritical) for vPortExitCritical
    tasks.o(i.ulTaskNotifyTake) refers to tasks.o(.data) for pxCurrentTCB
    tasks.o(i.uxTaskGetNumberOfTasks) refers to tasks.o(.data) for uxCurrentNumberOfTasks
    tasks.o(i.uxTaskGetSystemState) refers to tasks.o(i.vTaskSuspendAll) for vTaskSuspendAll
    tasks.o(i.uxTaskGetSystemState) refers to tasks.o(i.prvListTasksWithinSingleList) for prvListTasksWithinSingleList
    tasks.o(i.uxTaskGetSystemState) refers to tasks.o(i.xTaskResumeAll) for xTaskResumeAll
    tasks.o(i.uxTaskGetSystemState) refers to tasks.o(.data) for uxCurrentNumberOfTasks
    tasks.o(i.uxTaskGetSystemState) refers to tasks.o(.bss) for pxReadyTasksLists
    tasks.o(i.uxTaskGetSystemState) refers to tim2.o(.data) for CPU_RunTime
    tasks.o(i.uxTaskPriorityGet) refers to port.o(i.vPortEnterCritical) for vPortEnterCritical
    tasks.o(i.uxTaskPriorityGet) refers to port.o(i.vPortExitCritical) for vPortExitCritical
    tasks.o(i.uxTaskPriorityGet) refers to tasks.o(.data) for pxCurrentTCB
    tasks.o(i.uxTaskPriorityGetFromISR) refers to port.o(i.vPortValidateInterruptPriority) for vPortValidateInterruptPriority
    tasks.o(i.uxTaskPriorityGetFromISR) refers to tasks.o(.data) for pxCurrentTCB
    tasks.o(i.uxTaskResetEventItemValue) refers to tasks.o(.data) for pxCurrentTCB
    tasks.o(i.vTaskDelay) refers to _printf_percent.o(.ARM.Collect$$_printf_percent$$00000000) for _printf_percent
    tasks.o(i.vTaskDelay) refers to _printf_d.o(.ARM.Collect$$_printf_percent$$00000009) for _printf_d
    tasks.o(i.vTaskDelay) refers to _printf_s.o(.ARM.Collect$$_printf_percent$$00000014) for _printf_s
    tasks.o(i.vTaskDelay) refers to _printf_dec.o(.text) for _printf_int_dec
    tasks.o(i.vTaskDelay) refers to _printf_str.o(.text) for _printf_str
    tasks.o(i.vTaskDelay) refers to noretval__2printf.o(.text) for __2printf
    tasks.o(i.vTaskDelay) refers to tasks.o(i.vTaskSuspendAll) for vTaskSuspendAll
    tasks.o(i.vTaskDelay) refers to tasks.o(i.prvAddCurrentTaskToDelayedList) for prvAddCurrentTaskToDelayedList
    tasks.o(i.vTaskDelay) refers to tasks.o(i.xTaskResumeAll) for xTaskResumeAll
    tasks.o(i.vTaskDelay) refers to tasks.o(.data) for uxSchedulerSuspended
    tasks.o(i.vTaskDelayUntil) refers to _printf_percent.o(.ARM.Collect$$_printf_percent$$00000000) for _printf_percent
    tasks.o(i.vTaskDelayUntil) refers to _printf_d.o(.ARM.Collect$$_printf_percent$$00000009) for _printf_d
    tasks.o(i.vTaskDelayUntil) refers to _printf_s.o(.ARM.Collect$$_printf_percent$$00000014) for _printf_s
    tasks.o(i.vTaskDelayUntil) refers to _printf_dec.o(.text) for _printf_int_dec
    tasks.o(i.vTaskDelayUntil) refers to _printf_str.o(.text) for _printf_str
    tasks.o(i.vTaskDelayUntil) refers to noretval__2printf.o(.text) for __2printf
    tasks.o(i.vTaskDelayUntil) refers to tasks.o(i.vTaskSuspendAll) for vTaskSuspendAll
    tasks.o(i.vTaskDelayUntil) refers to tasks.o(i.prvAddCurrentTaskToDelayedList) for prvAddCurrentTaskToDelayedList
    tasks.o(i.vTaskDelayUntil) refers to tasks.o(i.xTaskResumeAll) for xTaskResumeAll
    tasks.o(i.vTaskDelayUntil) refers to tasks.o(.data) for uxSchedulerSuspended
    tasks.o(i.vTaskDelete) refers to _printf_percent.o(.ARM.Collect$$_printf_percent$$00000000) for _printf_percent
    tasks.o(i.vTaskDelete) refers to _printf_d.o(.ARM.Collect$$_printf_percent$$00000009) for _printf_d
    tasks.o(i.vTaskDelete) refers to _printf_s.o(.ARM.Collect$$_printf_percent$$00000014) for _printf_s
    tasks.o(i.vTaskDelete) refers to _printf_dec.o(.text) for _printf_int_dec
    tasks.o(i.vTaskDelete) refers to _printf_str.o(.text) for _printf_str
    tasks.o(i.vTaskDelete) refers to port.o(i.vPortEnterCritical) for vPortEnterCritical
    tasks.o(i.vTaskDelete) refers to list.o(i.uxListRemove) for uxListRemove
    tasks.o(i.vTaskDelete) refers to list.o(i.vListInsertEnd) for vListInsertEnd
    tasks.o(i.vTaskDelete) refers to tasks.o(i.prvDeleteTCB) for prvDeleteTCB
    tasks.o(i.vTaskDelete) refers to tasks.o(i.prvResetNextTaskUnblockTime) for prvResetNextTaskUnblockTime
    tasks.o(i.vTaskDelete) refers to port.o(i.vPortExitCritical) for vPortExitCritical
    tasks.o(i.vTaskDelete) refers to noretval__2printf.o(.text) for __2printf
    tasks.o(i.vTaskDelete) refers to tasks.o(.data) for pxCurrentTCB
    tasks.o(i.vTaskDelete) refers to tasks.o(.bss) for pxReadyTasksLists
    tasks.o(i.vTaskEndScheduler) refers to port.o(i.vPortEndScheduler) for vPortEndScheduler
    tasks.o(i.vTaskEndScheduler) refers to tasks.o(.data) for xSchedulerRunning
    tasks.o(i.vTaskGetInfo) refers to tasks.o(i.vTaskSuspendAll) for vTaskSuspendAll
    tasks.o(i.vTaskGetInfo) refers to tasks.o(i.xTaskResumeAll) for xTaskResumeAll
    tasks.o(i.vTaskGetInfo) refers to tasks.o(i.eTaskGetState) for eTaskGetState
    tasks.o(i.vTaskGetInfo) refers to tasks.o(i.prvTaskCheckFreeStackSpace) for prvTaskCheckFreeStackSpace
    tasks.o(i.vTaskGetInfo) refers to tasks.o(.data) for pxCurrentTCB
    tasks.o(i.vTaskGetRunTimeStats) refers to _printf_percent.o(.ARM.Collect$$_printf_percent$$00000000) for _printf_percent
    tasks.o(i.vTaskGetRunTimeStats) refers to _printf_u.o(.ARM.Collect$$_printf_percent$$0000000A) for _printf_u
    tasks.o(i.vTaskGetRunTimeStats) refers to _printf_dec.o(.text) for _printf_int_dec
    tasks.o(i.vTaskGetRunTimeStats) refers to heap_4.o(i.pvPortMalloc) for pvPortMalloc
    tasks.o(i.vTaskGetRunTimeStats) refers to tasks.o(i.uxTaskGetSystemState) for uxTaskGetSystemState
    tasks.o(i.vTaskGetRunTimeStats) refers to tasks.o(i.prvWriteNameToBuffer) for prvWriteNameToBuffer
    tasks.o(i.vTaskGetRunTimeStats) refers to noretval__2sprintf.o(.text) for __2sprintf
    tasks.o(i.vTaskGetRunTimeStats) refers to strlen.o(.text) for strlen
    tasks.o(i.vTaskGetRunTimeStats) refers to heap_4.o(i.vPortFree) for vPortFree
    tasks.o(i.vTaskGetRunTimeStats) refers to tasks.o(.data) for uxCurrentNumberOfTasks
    tasks.o(i.vTaskInternalSetTimeOutState) refers to tasks.o(.data) for xNumOfOverflows
    tasks.o(i.vTaskList) refers to _printf_percent.o(.ARM.Collect$$_printf_percent$$00000000) for _printf_percent
    tasks.o(i.vTaskList) refers to _printf_u.o(.ARM.Collect$$_printf_percent$$0000000A) for _printf_u
    tasks.o(i.vTaskList) refers to _printf_c.o(.ARM.Collect$$_printf_percent$$00000013) for _printf_c
    tasks.o(i.vTaskList) refers to _printf_dec.o(.text) for _printf_int_dec
    tasks.o(i.vTaskList) refers to _printf_str.o(.text) for _printf_str
    tasks.o(i.vTaskList) refers to heap_4.o(i.pvPortMalloc) for pvPortMalloc
    tasks.o(i.vTaskList) refers to tasks.o(i.uxTaskGetSystemState) for uxTaskGetSystemState
    tasks.o(i.vTaskList) refers to tasks.o(i.prvWriteNameToBuffer) for prvWriteNameToBuffer
    tasks.o(i.vTaskList) refers to noretval__2sprintf.o(.text) for __2sprintf
    tasks.o(i.vTaskList) refers to strlen.o(.text) for strlen
    tasks.o(i.vTaskList) refers to heap_4.o(i.vPortFree) for vPortFree
    tasks.o(i.vTaskList) refers to tasks.o(.data) for uxCurrentNumberOfTasks
    tasks.o(i.vTaskMissedYield) refers to tasks.o(.data) for xYieldPending
    tasks.o(i.vTaskNotifyGiveFromISR) refers to _printf_percent.o(.ARM.Collect$$_printf_percent$$00000000) for _printf_percent
    tasks.o(i.vTaskNotifyGiveFromISR) refers to _printf_d.o(.ARM.Collect$$_printf_percent$$00000009) for _printf_d
    tasks.o(i.vTaskNotifyGiveFromISR) refers to _printf_s.o(.ARM.Collect$$_printf_percent$$00000014) for _printf_s
    tasks.o(i.vTaskNotifyGiveFromISR) refers to _printf_dec.o(.text) for _printf_int_dec
    tasks.o(i.vTaskNotifyGiveFromISR) refers to _printf_str.o(.text) for _printf_str
    tasks.o(i.vTaskNotifyGiveFromISR) refers to noretval__2printf.o(.text) for __2printf
    tasks.o(i.vTaskNotifyGiveFromISR) refers to port.o(i.vPortValidateInterruptPriority) for vPortValidateInterruptPriority
    tasks.o(i.vTaskNotifyGiveFromISR) refers to list.o(i.uxListRemove) for uxListRemove
    tasks.o(i.vTaskNotifyGiveFromISR) refers to list.o(i.vListInsertEnd) for vListInsertEnd
    tasks.o(i.vTaskNotifyGiveFromISR) refers to tasks.o(.data) for uxSchedulerSuspended
    tasks.o(i.vTaskNotifyGiveFromISR) refers to tasks.o(.bss) for pxReadyTasksLists
    tasks.o(i.vTaskPlaceOnEventList) refers to _printf_percent.o(.ARM.Collect$$_printf_percent$$00000000) for _printf_percent
    tasks.o(i.vTaskPlaceOnEventList) refers to _printf_d.o(.ARM.Collect$$_printf_percent$$00000009) for _printf_d
    tasks.o(i.vTaskPlaceOnEventList) refers to _printf_s.o(.ARM.Collect$$_printf_percent$$00000014) for _printf_s
    tasks.o(i.vTaskPlaceOnEventList) refers to _printf_dec.o(.text) for _printf_int_dec
    tasks.o(i.vTaskPlaceOnEventList) refers to _printf_str.o(.text) for _printf_str
    tasks.o(i.vTaskPlaceOnEventList) refers to noretval__2printf.o(.text) for __2printf
    tasks.o(i.vTaskPlaceOnEventList) refers to list.o(i.vListInsert) for vListInsert
    tasks.o(i.vTaskPlaceOnEventList) refers to tasks.o(i.prvAddCurrentTaskToDelayedList) for prvAddCurrentTaskToDelayedList
    tasks.o(i.vTaskPlaceOnEventList) refers to tasks.o(.data) for pxCurrentTCB
    tasks.o(i.vTaskPlaceOnUnorderedEventList) refers to _printf_percent.o(.ARM.Collect$$_printf_percent$$00000000) for _printf_percent
    tasks.o(i.vTaskPlaceOnUnorderedEventList) refers to _printf_d.o(.ARM.Collect$$_printf_percent$$00000009) for _printf_d
    tasks.o(i.vTaskPlaceOnUnorderedEventList) refers to _printf_s.o(.ARM.Collect$$_printf_percent$$00000014) for _printf_s
    tasks.o(i.vTaskPlaceOnUnorderedEventList) refers to _printf_dec.o(.text) for _printf_int_dec
    tasks.o(i.vTaskPlaceOnUnorderedEventList) refers to _printf_str.o(.text) for _printf_str
    tasks.o(i.vTaskPlaceOnUnorderedEventList) refers to noretval__2printf.o(.text) for __2printf
    tasks.o(i.vTaskPlaceOnUnorderedEventList) refers to list.o(i.vListInsertEnd) for vListInsertEnd
    tasks.o(i.vTaskPlaceOnUnorderedEventList) refers to tasks.o(i.prvAddCurrentTaskToDelayedList) for prvAddCurrentTaskToDelayedList
    tasks.o(i.vTaskPlaceOnUnorderedEventList) refers to tasks.o(.data) for uxSchedulerSuspended
    tasks.o(i.vTaskPriorityDisinheritAfterTimeout) refers to _printf_percent.o(.ARM.Collect$$_printf_percent$$00000000) for _printf_percent
    tasks.o(i.vTaskPriorityDisinheritAfterTimeout) refers to _printf_d.o(.ARM.Collect$$_printf_percent$$00000009) for _printf_d
    tasks.o(i.vTaskPriorityDisinheritAfterTimeout) refers to _printf_s.o(.ARM.Collect$$_printf_percent$$00000014) for _printf_s
    tasks.o(i.vTaskPriorityDisinheritAfterTimeout) refers to _printf_dec.o(.text) for _printf_int_dec
    tasks.o(i.vTaskPriorityDisinheritAfterTimeout) refers to _printf_str.o(.text) for _printf_str
    tasks.o(i.vTaskPriorityDisinheritAfterTimeout) refers to noretval__2printf.o(.text) for __2printf
    tasks.o(i.vTaskPriorityDisinheritAfterTimeout) refers to list.o(i.uxListRemove) for uxListRemove
    tasks.o(i.vTaskPriorityDisinheritAfterTimeout) refers to list.o(i.vListInsertEnd) for vListInsertEnd
    tasks.o(i.vTaskPriorityDisinheritAfterTimeout) refers to tasks.o(.data) for pxCurrentTCB
    tasks.o(i.vTaskPriorityDisinheritAfterTimeout) refers to tasks.o(.bss) for pxReadyTasksLists
    tasks.o(i.vTaskPrioritySet) refers to _printf_percent.o(.ARM.Collect$$_printf_percent$$00000000) for _printf_percent
    tasks.o(i.vTaskPrioritySet) refers to _printf_d.o(.ARM.Collect$$_printf_percent$$00000009) for _printf_d
    tasks.o(i.vTaskPrioritySet) refers to _printf_s.o(.ARM.Collect$$_printf_percent$$00000014) for _printf_s
    tasks.o(i.vTaskPrioritySet) refers to _printf_dec.o(.text) for _printf_int_dec
    tasks.o(i.vTaskPrioritySet) refers to _printf_str.o(.text) for _printf_str
    tasks.o(i.vTaskPrioritySet) refers to noretval__2printf.o(.text) for __2printf
    tasks.o(i.vTaskPrioritySet) refers to port.o(i.vPortEnterCritical) for vPortEnterCritical
    tasks.o(i.vTaskPrioritySet) refers to list.o(i.uxListRemove) for uxListRemove
    tasks.o(i.vTaskPrioritySet) refers to list.o(i.vListInsertEnd) for vListInsertEnd
    tasks.o(i.vTaskPrioritySet) refers to port.o(i.vPortExitCritical) for vPortExitCritical
    tasks.o(i.vTaskPrioritySet) refers to tasks.o(.data) for pxCurrentTCB
    tasks.o(i.vTaskPrioritySet) refers to tasks.o(.bss) for pxReadyTasksLists
    tasks.o(i.vTaskRemoveFromUnorderedEventList) refers to _printf_percent.o(.ARM.Collect$$_printf_percent$$00000000) for _printf_percent
    tasks.o(i.vTaskRemoveFromUnorderedEventList) refers to _printf_d.o(.ARM.Collect$$_printf_percent$$00000009) for _printf_d
    tasks.o(i.vTaskRemoveFromUnorderedEventList) refers to _printf_s.o(.ARM.Collect$$_printf_percent$$00000014) for _printf_s
    tasks.o(i.vTaskRemoveFromUnorderedEventList) refers to _printf_dec.o(.text) for _printf_int_dec
    tasks.o(i.vTaskRemoveFromUnorderedEventList) refers to _printf_str.o(.text) for _printf_str
    tasks.o(i.vTaskRemoveFromUnorderedEventList) refers to noretval__2printf.o(.text) for __2printf
    tasks.o(i.vTaskRemoveFromUnorderedEventList) refers to list.o(i.uxListRemove) for uxListRemove
    tasks.o(i.vTaskRemoveFromUnorderedEventList) refers to list.o(i.vListInsertEnd) for vListInsertEnd
    tasks.o(i.vTaskRemoveFromUnorderedEventList) refers to tasks.o(.data) for uxSchedulerSuspended
    tasks.o(i.vTaskRemoveFromUnorderedEventList) refers to tasks.o(.bss) for pxReadyTasksLists
    tasks.o(i.vTaskResume) refers to _printf_percent.o(.ARM.Collect$$_printf_percent$$00000000) for _printf_percent
    tasks.o(i.vTaskResume) refers to _printf_d.o(.ARM.Collect$$_printf_percent$$00000009) for _printf_d
    tasks.o(i.vTaskResume) refers to _printf_s.o(.ARM.Collect$$_printf_percent$$00000014) for _printf_s
    tasks.o(i.vTaskResume) refers to _printf_dec.o(.text) for _printf_int_dec
    tasks.o(i.vTaskResume) refers to _printf_str.o(.text) for _printf_str
    tasks.o(i.vTaskResume) refers to noretval__2printf.o(.text) for __2printf
    tasks.o(i.vTaskResume) refers to port.o(i.vPortEnterCritical) for vPortEnterCritical
    tasks.o(i.vTaskResume) refers to tasks.o(i.prvTaskIsTaskSuspended) for prvTaskIsTaskSuspended
    tasks.o(i.vTaskResume) refers to list.o(i.uxListRemove) for uxListRemove
    tasks.o(i.vTaskResume) refers to list.o(i.vListInsertEnd) for vListInsertEnd
    tasks.o(i.vTaskResume) refers to port.o(i.vPortExitCritical) for vPortExitCritical
    tasks.o(i.vTaskResume) refers to tasks.o(.data) for pxCurrentTCB
    tasks.o(i.vTaskResume) refers to tasks.o(.bss) for pxReadyTasksLists
    tasks.o(i.vTaskSetTimeOutState) refers to _printf_percent.o(.ARM.Collect$$_printf_percent$$00000000) for _printf_percent
    tasks.o(i.vTaskSetTimeOutState) refers to _printf_d.o(.ARM.Collect$$_printf_percent$$00000009) for _printf_d
    tasks.o(i.vTaskSetTimeOutState) refers to _printf_s.o(.ARM.Collect$$_printf_percent$$00000014) for _printf_s
    tasks.o(i.vTaskSetTimeOutState) refers to _printf_dec.o(.text) for _printf_int_dec
    tasks.o(i.vTaskSetTimeOutState) refers to _printf_str.o(.text) for _printf_str
    tasks.o(i.vTaskSetTimeOutState) refers to noretval__2printf.o(.text) for __2printf
    tasks.o(i.vTaskSetTimeOutState) refers to port.o(i.vPortEnterCritical) for vPortEnterCritical
    tasks.o(i.vTaskSetTimeOutState) refers to port.o(i.vPortExitCritical) for vPortExitCritical
    tasks.o(i.vTaskSetTimeOutState) refers to tasks.o(.data) for xNumOfOverflows
    tasks.o(i.vTaskStartScheduler) refers to _printf_percent.o(.ARM.Collect$$_printf_percent$$00000000) for _printf_percent
    tasks.o(i.vTaskStartScheduler) refers to _printf_d.o(.ARM.Collect$$_printf_percent$$00000009) for _printf_d
    tasks.o(i.vTaskStartScheduler) refers to _printf_s.o(.ARM.Collect$$_printf_percent$$00000014) for _printf_s
    tasks.o(i.vTaskStartScheduler) refers to _printf_dec.o(.text) for _printf_int_dec
    tasks.o(i.vTaskStartScheduler) refers to _printf_str.o(.text) for _printf_str
    tasks.o(i.vTaskStartScheduler) refers to tasks.o(i.xTaskCreate) for xTaskCreate
    tasks.o(i.vTaskStartScheduler) refers to port.o(i.xPortStartScheduler) for xPortStartScheduler
    tasks.o(i.vTaskStartScheduler) refers to noretval__2printf.o(.text) for __2printf
    tasks.o(i.vTaskStartScheduler) refers to tasks.o(.data) for xIdleTaskHandle
    tasks.o(i.vTaskStartScheduler) refers to tasks.o(i.prvIdleTask) for prvIdleTask
    tasks.o(i.vTaskStartScheduler) refers to tim2.o(.data) for CPU_RunTime
    tasks.o(i.vTaskSuspend) refers to _printf_percent.o(.ARM.Collect$$_printf_percent$$00000000) for _printf_percent
    tasks.o(i.vTaskSuspend) refers to _printf_d.o(.ARM.Collect$$_printf_percent$$00000009) for _printf_d
    tasks.o(i.vTaskSuspend) refers to _printf_s.o(.ARM.Collect$$_printf_percent$$00000014) for _printf_s
    tasks.o(i.vTaskSuspend) refers to _printf_dec.o(.text) for _printf_int_dec
    tasks.o(i.vTaskSuspend) refers to _printf_str.o(.text) for _printf_str
    tasks.o(i.vTaskSuspend) refers to port.o(i.vPortEnterCritical) for vPortEnterCritical
    tasks.o(i.vTaskSuspend) refers to list.o(i.uxListRemove) for uxListRemove
    tasks.o(i.vTaskSuspend) refers to list.o(i.vListInsertEnd) for vListInsertEnd
    tasks.o(i.vTaskSuspend) refers to port.o(i.vPortExitCritical) for vPortExitCritical
    tasks.o(i.vTaskSuspend) refers to tasks.o(i.prvResetNextTaskUnblockTime) for prvResetNextTaskUnblockTime
    tasks.o(i.vTaskSuspend) refers to noretval__2printf.o(.text) for __2printf
    tasks.o(i.vTaskSuspend) refers to tasks.o(i.vTaskSwitchContext) for vTaskSwitchContext
    tasks.o(i.vTaskSuspend) refers to tasks.o(.data) for pxCurrentTCB
    tasks.o(i.vTaskSuspend) refers to tasks.o(.bss) for pxReadyTasksLists
    tasks.o(i.vTaskSuspendAll) refers to tasks.o(.data) for uxSchedulerSuspended
    tasks.o(i.vTaskSwitchContext) refers to _printf_percent.o(.ARM.Collect$$_printf_percent$$00000000) for _printf_percent
    tasks.o(i.vTaskSwitchContext) refers to _printf_d.o(.ARM.Collect$$_printf_percent$$00000009) for _printf_d
    tasks.o(i.vTaskSwitchContext) refers to _printf_s.o(.ARM.Collect$$_printf_percent$$00000014) for _printf_s
    tasks.o(i.vTaskSwitchContext) refers to _printf_dec.o(.text) for _printf_int_dec
    tasks.o(i.vTaskSwitchContext) refers to _printf_str.o(.text) for _printf_str
    tasks.o(i.vTaskSwitchContext) refers to noretval__2printf.o(.text) for __2printf
    tasks.o(i.vTaskSwitchContext) refers to tasks.o(.data) for uxSchedulerSuspended
    tasks.o(i.vTaskSwitchContext) refers to tim2.o(.data) for CPU_RunTime
    tasks.o(i.vTaskSwitchContext) refers to tasks.o(.bss) for pxReadyTasksLists
    tasks.o(i.xTaskCheckForTimeOut) refers to _printf_percent.o(.ARM.Collect$$_printf_percent$$00000000) for _printf_percent
    tasks.o(i.xTaskCheckForTimeOut) refers to _printf_d.o(.ARM.Collect$$_printf_percent$$00000009) for _printf_d
    tasks.o(i.xTaskCheckForTimeOut) refers to _printf_s.o(.ARM.Collect$$_printf_percent$$00000014) for _printf_s
    tasks.o(i.xTaskCheckForTimeOut) refers to _printf_dec.o(.text) for _printf_int_dec
    tasks.o(i.xTaskCheckForTimeOut) refers to _printf_str.o(.text) for _printf_str
    tasks.o(i.xTaskCheckForTimeOut) refers to noretval__2printf.o(.text) for __2printf
    tasks.o(i.xTaskCheckForTimeOut) refers to port.o(i.vPortEnterCritical) for vPortEnterCritical
    tasks.o(i.xTaskCheckForTimeOut) refers to tasks.o(i.vTaskInternalSetTimeOutState) for vTaskInternalSetTimeOutState
    tasks.o(i.xTaskCheckForTimeOut) refers to port.o(i.vPortExitCritical) for vPortExitCritical
    tasks.o(i.xTaskCheckForTimeOut) refers to tasks.o(.data) for xTickCount
    tasks.o(i.xTaskCreate) refers to heap_4.o(i.pvPortMalloc) for pvPortMalloc
    tasks.o(i.xTaskCreate) refers to heap_4.o(i.vPortFree) for vPortFree
    tasks.o(i.xTaskCreate) refers to tasks.o(i.prvInitialiseNewTask) for prvInitialiseNewTask
    tasks.o(i.xTaskCreate) refers to tasks.o(i.prvAddNewTaskToReadyList) for prvAddNewTaskToReadyList
    tasks.o(i.xTaskGenericNotify) refers to _printf_percent.o(.ARM.Collect$$_printf_percent$$00000000) for _printf_percent
    tasks.o(i.xTaskGenericNotify) refers to _printf_d.o(.ARM.Collect$$_printf_percent$$00000009) for _printf_d
    tasks.o(i.xTaskGenericNotify) refers to _printf_s.o(.ARM.Collect$$_printf_percent$$00000014) for _printf_s
    tasks.o(i.xTaskGenericNotify) refers to _printf_dec.o(.text) for _printf_int_dec
    tasks.o(i.xTaskGenericNotify) refers to _printf_str.o(.text) for _printf_str
    tasks.o(i.xTaskGenericNotify) refers to noretval__2printf.o(.text) for __2printf
    tasks.o(i.xTaskGenericNotify) refers to port.o(i.vPortEnterCritical) for vPortEnterCritical
    tasks.o(i.xTaskGenericNotify) refers to list.o(i.uxListRemove) for uxListRemove
    tasks.o(i.xTaskGenericNotify) refers to list.o(i.vListInsertEnd) for vListInsertEnd
    tasks.o(i.xTaskGenericNotify) refers to port.o(i.vPortExitCritical) for vPortExitCritical
    tasks.o(i.xTaskGenericNotify) refers to tasks.o(.data) for uxTopReadyPriority
    tasks.o(i.xTaskGenericNotify) refers to tasks.o(.bss) for pxReadyTasksLists
    tasks.o(i.xTaskGenericNotifyFromISR) refers to _printf_percent.o(.ARM.Collect$$_printf_percent$$00000000) for _printf_percent
    tasks.o(i.xTaskGenericNotifyFromISR) refers to _printf_d.o(.ARM.Collect$$_printf_percent$$00000009) for _printf_d
    tasks.o(i.xTaskGenericNotifyFromISR) refers to _printf_s.o(.ARM.Collect$$_printf_percent$$00000014) for _printf_s
    tasks.o(i.xTaskGenericNotifyFromISR) refers to _printf_dec.o(.text) for _printf_int_dec
    tasks.o(i.xTaskGenericNotifyFromISR) refers to _printf_str.o(.text) for _printf_str
    tasks.o(i.xTaskGenericNotifyFromISR) refers to noretval__2printf.o(.text) for __2printf
    tasks.o(i.xTaskGenericNotifyFromISR) refers to port.o(i.vPortValidateInterruptPriority) for vPortValidateInterruptPriority
    tasks.o(i.xTaskGenericNotifyFromISR) refers to list.o(i.uxListRemove) for uxListRemove
    tasks.o(i.xTaskGenericNotifyFromISR) refers to list.o(i.vListInsertEnd) for vListInsertEnd
    tasks.o(i.xTaskGenericNotifyFromISR) refers to tasks.o(.data) for uxSchedulerSuspended
    tasks.o(i.xTaskGenericNotifyFromISR) refers to tasks.o(.bss) for pxReadyTasksLists
    tasks.o(i.xTaskGetCurrentTaskHandle) refers to tasks.o(.data) for pxCurrentTCB
    tasks.o(i.xTaskGetSchedulerState) refers to tasks.o(.data) for xSchedulerRunning
    tasks.o(i.xTaskGetTickCount) refers to tasks.o(.data) for xTickCount
    tasks.o(i.xTaskGetTickCountFromISR) refers to port.o(i.vPortValidateInterruptPriority) for vPortValidateInterruptPriority
    tasks.o(i.xTaskGetTickCountFromISR) refers to tasks.o(.data) for xTickCount
    tasks.o(i.xTaskIncrementTick) refers to _printf_percent.o(.ARM.Collect$$_printf_percent$$00000000) for _printf_percent
    tasks.o(i.xTaskIncrementTick) refers to _printf_d.o(.ARM.Collect$$_printf_percent$$00000009) for _printf_d
    tasks.o(i.xTaskIncrementTick) refers to _printf_s.o(.ARM.Collect$$_printf_percent$$00000014) for _printf_s
    tasks.o(i.xTaskIncrementTick) refers to _printf_dec.o(.text) for _printf_int_dec
    tasks.o(i.xTaskIncrementTick) refers to _printf_str.o(.text) for _printf_str
    tasks.o(i.xTaskIncrementTick) refers to noretval__2printf.o(.text) for __2printf
    tasks.o(i.xTaskIncrementTick) refers to tasks.o(i.prvResetNextTaskUnblockTime) for prvResetNextTaskUnblockTime
    tasks.o(i.xTaskIncrementTick) refers to list.o(i.uxListRemove) for uxListRemove
    tasks.o(i.xTaskIncrementTick) refers to list.o(i.vListInsertEnd) for vListInsertEnd
    tasks.o(i.xTaskIncrementTick) refers to tasks.o(.data) for uxSchedulerSuspended
    tasks.o(i.xTaskIncrementTick) refers to tasks.o(.bss) for pxReadyTasksLists
    tasks.o(i.xTaskNotifyStateClear) refers to port.o(i.vPortEnterCritical) for vPortEnterCritical
    tasks.o(i.xTaskNotifyStateClear) refers to port.o(i.vPortExitCritical) for vPortExitCritical
    tasks.o(i.xTaskNotifyStateClear) refers to tasks.o(.data) for pxCurrentTCB
    tasks.o(i.xTaskNotifyWait) refers to port.o(i.vPortEnterCritical) for vPortEnterCritical
    tasks.o(i.xTaskNotifyWait) refers to tasks.o(i.prvAddCurrentTaskToDelayedList) for prvAddCurrentTaskToDelayedList
    tasks.o(i.xTaskNotifyWait) refers to port.o(i.vPortExitCritical) for vPortExitCritical
    tasks.o(i.xTaskNotifyWait) refers to tasks.o(.data) for pxCurrentTCB
    tasks.o(i.xTaskPriorityDisinherit) refers to _printf_percent.o(.ARM.Collect$$_printf_percent$$00000000) for _printf_percent
    tasks.o(i.xTaskPriorityDisinherit) refers to _printf_d.o(.ARM.Collect$$_printf_percent$$00000009) for _printf_d
    tasks.o(i.xTaskPriorityDisinherit) refers to _printf_s.o(.ARM.Collect$$_printf_percent$$00000014) for _printf_s
    tasks.o(i.xTaskPriorityDisinherit) refers to _printf_dec.o(.text) for _printf_int_dec
    tasks.o(i.xTaskPriorityDisinherit) refers to _printf_str.o(.text) for _printf_str
    tasks.o(i.xTaskPriorityDisinherit) refers to noretval__2printf.o(.text) for __2printf
    tasks.o(i.xTaskPriorityDisinherit) refers to list.o(i.uxListRemove) for uxListRemove
    tasks.o(i.xTaskPriorityDisinherit) refers to list.o(i.vListInsertEnd) for vListInsertEnd
    tasks.o(i.xTaskPriorityDisinherit) refers to tasks.o(.data) for pxCurrentTCB
    tasks.o(i.xTaskPriorityDisinherit) refers to tasks.o(.bss) for pxReadyTasksLists
    tasks.o(i.xTaskPriorityInherit) refers to list.o(i.uxListRemove) for uxListRemove
    tasks.o(i.xTaskPriorityInherit) refers to list.o(i.vListInsertEnd) for vListInsertEnd
    tasks.o(i.xTaskPriorityInherit) refers to tasks.o(.data) for pxCurrentTCB
    tasks.o(i.xTaskPriorityInherit) refers to tasks.o(.bss) for pxReadyTasksLists
    tasks.o(i.xTaskRemoveFromEventList) refers to _printf_percent.o(.ARM.Collect$$_printf_percent$$00000000) for _printf_percent
    tasks.o(i.xTaskRemoveFromEventList) refers to _printf_d.o(.ARM.Collect$$_printf_percent$$00000009) for _printf_d
    tasks.o(i.xTaskRemoveFromEventList) refers to _printf_s.o(.ARM.Collect$$_printf_percent$$00000014) for _printf_s
    tasks.o(i.xTaskRemoveFromEventList) refers to _printf_dec.o(.text) for _printf_int_dec
    tasks.o(i.xTaskRemoveFromEventList) refers to _printf_str.o(.text) for _printf_str
    tasks.o(i.xTaskRemoveFromEventList) refers to noretval__2printf.o(.text) for __2printf
    tasks.o(i.xTaskRemoveFromEventList) refers to list.o(i.uxListRemove) for uxListRemove
    tasks.o(i.xTaskRemoveFromEventList) refers to list.o(i.vListInsertEnd) for vListInsertEnd
    tasks.o(i.xTaskRemoveFromEventList) refers to tasks.o(.data) for uxSchedulerSuspended
    tasks.o(i.xTaskRemoveFromEventList) refers to tasks.o(.bss) for pxReadyTasksLists
    tasks.o(i.xTaskResumeAll) refers to _printf_percent.o(.ARM.Collect$$_printf_percent$$00000000) for _printf_percent
    tasks.o(i.xTaskResumeAll) refers to _printf_d.o(.ARM.Collect$$_printf_percent$$00000009) for _printf_d
    tasks.o(i.xTaskResumeAll) refers to _printf_s.o(.ARM.Collect$$_printf_percent$$00000014) for _printf_s
    tasks.o(i.xTaskResumeAll) refers to _printf_dec.o(.text) for _printf_int_dec
    tasks.o(i.xTaskResumeAll) refers to _printf_str.o(.text) for _printf_str
    tasks.o(i.xTaskResumeAll) refers to noretval__2printf.o(.text) for __2printf
    tasks.o(i.xTaskResumeAll) refers to port.o(i.vPortEnterCritical) for vPortEnterCritical
    tasks.o(i.xTaskResumeAll) refers to list.o(i.uxListRemove) for uxListRemove
    tasks.o(i.xTaskResumeAll) refers to list.o(i.vListInsertEnd) for vListInsertEnd
    tasks.o(i.xTaskResumeAll) refers to tasks.o(i.prvResetNextTaskUnblockTime) for prvResetNextTaskUnblockTime
    tasks.o(i.xTaskResumeAll) refers to tasks.o(i.xTaskIncrementTick) for xTaskIncrementTick
    tasks.o(i.xTaskResumeAll) refers to port.o(i.vPortExitCritical) for vPortExitCritical
    tasks.o(i.xTaskResumeAll) refers to tasks.o(.data) for uxSchedulerSuspended
    tasks.o(i.xTaskResumeAll) refers to tasks.o(.bss) for xPendingReadyList
    tasks.o(i.xTaskResumeFromISR) refers to _printf_percent.o(.ARM.Collect$$_printf_percent$$00000000) for _printf_percent
    tasks.o(i.xTaskResumeFromISR) refers to _printf_d.o(.ARM.Collect$$_printf_percent$$00000009) for _printf_d
    tasks.o(i.xTaskResumeFromISR) refers to _printf_s.o(.ARM.Collect$$_printf_percent$$00000014) for _printf_s
    tasks.o(i.xTaskResumeFromISR) refers to _printf_dec.o(.text) for _printf_int_dec
    tasks.o(i.xTaskResumeFromISR) refers to _printf_str.o(.text) for _printf_str
    tasks.o(i.xTaskResumeFromISR) refers to noretval__2printf.o(.text) for __2printf
    tasks.o(i.xTaskResumeFromISR) refers to port.o(i.vPortValidateInterruptPriority) for vPortValidateInterruptPriority
    tasks.o(i.xTaskResumeFromISR) refers to tasks.o(i.prvTaskIsTaskSuspended) for prvTaskIsTaskSuspended
    tasks.o(i.xTaskResumeFromISR) refers to list.o(i.uxListRemove) for uxListRemove
    tasks.o(i.xTaskResumeFromISR) refers to list.o(i.vListInsertEnd) for vListInsertEnd
    tasks.o(i.xTaskResumeFromISR) refers to tasks.o(.data) for uxSchedulerSuspended
    tasks.o(i.xTaskResumeFromISR) refers to tasks.o(.bss) for pxReadyTasksLists
    delay.o(i.delay_init) refers to misc.o(i.SysTick_CLKSourceConfig) for SysTick_CLKSourceConfig
    delay.o(i.delay_init) refers to delay.o(.data) for fac_us
    delay.o(i.delay_ms) refers to tasks.o(i.xTaskGetSchedulerState) for xTaskGetSchedulerState
    delay.o(i.delay_ms) refers to tasks.o(i.vTaskDelay) for vTaskDelay
    delay.o(i.delay_ms) refers to delay.o(i.delay_us) for delay_us
    delay.o(i.delay_ms) refers to delay.o(.data) for fac_ms
    delay.o(i.delay_us) refers to delay.o(.data) for fac_us
    delay.o(i.delay_xms) refers to delay.o(i.delay_us) for delay_us
    main.o(i.BaseHardwork_Init) refers to misc.o(i.NVIC_PriorityGroupConfig) for NVIC_PriorityGroupConfig
    main.o(i.BaseHardwork_Init) refers to delay.o(i.delay_init) for delay_init
    main.o(i.BaseHardwork_Init) refers to led.o(i.LED_Init) for LED_Init
    main.o(i.BaseHardwork_Init) refers to laser.o(i.Laser_InitConfig) for Laser_InitConfig
    main.o(i.BaseHardwork_Init) refers to beep.o(i.Beep_Init) for Beep_Init
    main.o(i.BaseHardwork_Init) refers to usart.o(i.USART6_Init) for USART6_Init
    main.o(i.BaseHardwork_Init) refers to general.o(i.Tick_TIM7_Init) for Tick_TIM7_Init
    main.o(i.BaseHardwork_Init) refers to dr16.o(i.DR16_InitConfig) for DR16_InitConfig
    main.o(i.main) refers to main.o(i.BaseHardwork_Init) for BaseHardwork_Init
    main.o(i.main) refers to stm32f4xx_gpio.o(i.GPIO_ResetBits) for GPIO_ResetBits
    main.o(i.main) refers to app_task.o(i.startTask) for startTask
    main.o(i.main) refers to tasks.o(i.vTaskStartScheduler) for vTaskStartScheduler
    stm32f4xx_it.o(i.SysTick_Handler) refers to tasks.o(i.xTaskGetSchedulerState) for xTaskGetSchedulerState
    stm32f4xx_it.o(i.SysTick_Handler) refers to port.o(i.xPortSysTickHandler) for xPortSysTickHandler
    system_stm32f4xx.o(i.SystemCoreClockUpdate) refers to system_stm32f4xx.o(.data) for SystemCoreClock
    system_stm32f4xx.o(i.SystemInit) refers to system_stm32f4xx.o(i.SetSysClock) for SetSysClock
    led.o(i.Heart_Task) refers to tasks.o(i.vTaskDelay) for vTaskDelay
    led.o(i.Heart_Task) refers to stm32f4xx_gpio.o(i.GPIO_ToggleBits) for GPIO_ToggleBits
    led.o(i.LED_Init) refers to stm32f4xx_rcc.o(i.RCC_AHB1PeriphClockCmd) for RCC_AHB1PeriphClockCmd
    led.o(i.LED_Init) refers to stm32f4xx_gpio.o(i.GPIO_Init) for GPIO_Init
    led.o(i.LED_Init) refers to stm32f4xx_gpio.o(i.GPIO_SetBits) for GPIO_SetBits
    beep.o(i.Beep_Change_Music) refers to stm32f4xx_rcc.o(i.RCC_APB1PeriphClockCmd) for RCC_APB1PeriphClockCmd
    beep.o(i.Beep_Change_Music) refers to stm32f4xx_rcc.o(i.RCC_AHB1PeriphClockCmd) for RCC_AHB1PeriphClockCmd
    beep.o(i.Beep_Change_Music) refers to stm32f4xx_gpio.o(i.GPIO_PinAFConfig) for GPIO_PinAFConfig
    beep.o(i.Beep_Change_Music) refers to stm32f4xx_gpio.o(i.GPIO_Init) for GPIO_Init
    beep.o(i.Beep_Change_Music) refers to stm32f4xx_tim.o(i.TIM_TimeBaseInit) for TIM_TimeBaseInit
    beep.o(i.Beep_Change_Music) refers to stm32f4xx_tim.o(i.TIM_OC1Init) for TIM_OC1Init
    beep.o(i.Beep_Change_Music) refers to stm32f4xx_tim.o(i.TIM_OC1PreloadConfig) for TIM_OC1PreloadConfig
    beep.o(i.Beep_Change_Music) refers to stm32f4xx_tim.o(i.TIM_ARRPreloadConfig) for TIM_ARRPreloadConfig
    beep.o(i.Beep_Change_Music) refers to stm32f4xx_tim.o(i.TIM_Cmd) for TIM_Cmd
    beep.o(i.Beep_Change_Music) refers to beep.o(i.Beep_OFF) for Beep_OFF
    beep.o(i.Beep_Init) refers to stm32f4xx_rcc.o(i.RCC_APB1PeriphClockCmd) for RCC_APB1PeriphClockCmd
    beep.o(i.Beep_Init) refers to stm32f4xx_rcc.o(i.RCC_AHB1PeriphClockCmd) for RCC_AHB1PeriphClockCmd
    beep.o(i.Beep_Init) refers to stm32f4xx_gpio.o(i.GPIO_PinAFConfig) for GPIO_PinAFConfig
    beep.o(i.Beep_Init) refers to stm32f4xx_gpio.o(i.GPIO_Init) for GPIO_Init
    beep.o(i.Beep_Init) refers to stm32f4xx_tim.o(i.TIM_TimeBaseInit) for TIM_TimeBaseInit
    beep.o(i.Beep_Init) refers to stm32f4xx_tim.o(i.TIM_OC1Init) for TIM_OC1Init
    beep.o(i.Beep_Init) refers to stm32f4xx_tim.o(i.TIM_OC1PreloadConfig) for TIM_OC1PreloadConfig
    beep.o(i.Beep_Init) refers to stm32f4xx_tim.o(i.TIM_ARRPreloadConfig) for TIM_ARRPreloadConfig
    beep.o(i.Beep_Init) refers to stm32f4xx_tim.o(i.TIM_Cmd) for TIM_Cmd
    beep.o(i.Beep_Init) refers to beep.o(i.Beep_OFF) for Beep_OFF
    beep.o(i.Beep_OFF) refers to stm32f4xx_tim.o(i.TIM_SetCompare1) for TIM_SetCompare1
    beep.o(i.Beep_ON) refers to stm32f4xx_tim.o(i.TIM_SetCompare1) for TIM_SetCompare1
    laser.o(i.Laser_InitConfig) refers to stm32f4xx_rcc.o(i.RCC_AHB1PeriphClockCmd) for RCC_AHB1PeriphClockCmd
    laser.o(i.Laser_InitConfig) refers to stm32f4xx_gpio.o(i.GPIO_Init) for GPIO_Init
    laser.o(i.Laser_InitConfig) refers to stm32f4xx_gpio.o(i.GPIO_SetBits) for GPIO_SetBits
    spi.o(i.SPI5_ReadWriteByte) refers to stm32f4xx_spi.o(i.SPI_I2S_GetFlagStatus) for SPI_I2S_GetFlagStatus
    spi.o(i.SPI5_ReadWriteByte) refers to stm32f4xx_spi.o(i.SPI_I2S_SendData) for SPI_I2S_SendData
    spi.o(i.SPI5_ReadWriteByte) refers to stm32f4xx_spi.o(i.SPI_I2S_ReceiveData) for SPI_I2S_ReceiveData
    spi.o(i.SPI_GPIO_InitConfig) refers to stm32f4xx_rcc.o(i.RCC_AHB1PeriphClockCmd) for RCC_AHB1PeriphClockCmd
    spi.o(i.SPI_GPIO_InitConfig) refers to stm32f4xx_rcc.o(i.RCC_APB2PeriphClockCmd) for RCC_APB2PeriphClockCmd
    spi.o(i.SPI_GPIO_InitConfig) refers to stm32f4xx_gpio.o(i.GPIO_Init) for GPIO_Init
    spi.o(i.SPI_GPIO_InitConfig) refers to stm32f4xx_gpio.o(i.GPIO_PinAFConfig) for GPIO_PinAFConfig
    spi.o(i.SPI_GPIO_InitConfig) refers to stm32f4xx_rcc.o(i.RCC_APB2PeriphResetCmd) for RCC_APB2PeriphResetCmd
    spi.o(i.SPI_GPIO_InitConfig) refers to stm32f4xx_spi.o(i.SPI_Init) for SPI_Init
    spi.o(i.SPI_GPIO_InitConfig) refers to stm32f4xx_spi.o(i.SPI_Cmd) for SPI_Cmd
    tim2.o(i.TIM2_IRQHandler) refers to stm32f4xx_tim.o(i.TIM_GetITStatus) for TIM_GetITStatus
    tim2.o(i.TIM2_IRQHandler) refers to stm32f4xx_tim.o(i.TIM_ClearITPendingBit) for TIM_ClearITPendingBit
    tim2.o(i.TIM2_IRQHandler) refers to tim2.o(.data) for CPU_RunTime
    tim2.o(i.TIM2_Init) refers to misc.o(i.NVIC_Init) for NVIC_Init
    tim2.o(i.TIM2_Init) refers to stm32f4xx_rcc.o(i.RCC_APB1PeriphClockCmd) for RCC_APB1PeriphClockCmd
    tim2.o(i.TIM2_Init) refers to stm32f4xx_tim.o(i.TIM_TimeBaseInit) for TIM_TimeBaseInit
    tim2.o(i.TIM2_Init) refers to stm32f4xx_tim.o(i.TIM_ClearFlag) for TIM_ClearFlag
    tim2.o(i.TIM2_Init) refers to stm32f4xx_tim.o(i.TIM_ITConfig) for TIM_ITConfig
    tim2.o(i.TIM2_Init) refers to stm32f4xx_tim.o(i.TIM_Cmd) for TIM_Cmd
    app_task.o(i.startTask) refers to tasks.o(i.xTaskCreate) for xTaskCreate
    app_task.o(i.startTask) refers to app_task.o(.data) for StartTask_Handler
    app_task.o(i.startTask) refers to app_task.o(i.start_task) for start_task
    app_task.o(i.start_task) refers to port.o(i.vPortEnterCritical) for vPortEnterCritical
    app_task.o(i.start_task) refers to tasks.o(i.xTaskCreate) for xTaskCreate
    app_task.o(i.start_task) refers to tasks.o(i.vTaskDelete) for vTaskDelete
    app_task.o(i.start_task) refers to port.o(i.vPortExitCritical) for vPortExitCritical
    app_task.o(i.start_task) refers to app_task.o(.data) for NUC_Decode_Task_Handler
    app_task.o(i.start_task) refers to usart.o(i.NUC_Decode_Task) for NUC_Decode_Task
    app_task.o(i.start_task) refers to imu.o(i.IMU_Get_Data_Task) for IMU_Get_Data_Task
    app_task.o(i.start_task) refers to usart.o(i.Up_To_Down_Decode_Task) for Up_To_Down_Decode_Task
    app_task.o(i.start_task) refers to usart.o(i.USART8_Send_Task) for USART8_Send_Task
    app_task.o(i.start_task) refers to ptz.o(i.PTZ_Control_Task) for PTZ_Control_Task
    app_task.o(i.start_task) refers to shoot.o(i.MoCaLun_Control_Task) for MoCaLun_Control_Task
    app_task.o(i.start_task) refers to led.o(i.Heart_Task) for Heart_Task
    usart.o(.rev16_text) refers (Special) to use_no_semi_2.o(.text) for __use_no_semihosting
    usart.o(.revsh_text) refers (Special) to use_no_semi_2.o(.text) for __use_no_semihosting
    usart.o(i.DMA1_Stream0_IRQHandler) refers (Special) to use_no_semi_2.o(.text) for __use_no_semihosting
    usart.o(i.DMA1_Stream0_IRQHandler) refers to stm32f4xx_dma.o(i.DMA_GetITStatus) for DMA_GetITStatus
    usart.o(i.DMA1_Stream0_IRQHandler) refers to stm32f4xx_dma.o(i.DMA_Cmd) for DMA_Cmd
    usart.o(i.DMA1_Stream0_IRQHandler) refers to stm32f4xx_dma.o(i.DMA_SetCurrDataCounter) for DMA_SetCurrDataCounter
    usart.o(i.DMA1_Stream0_IRQHandler) refers to stm32f4xx_dma.o(i.DMA_ClearITPendingBit) for DMA_ClearITPendingBit
    usart.o(i.DMA1_Stream0_IRQHandler) refers to stm32f4xx_dma.o(i.DMA_ClearFlag) for DMA_ClearFlag
    usart.o(i.DMA1_Stream3_IRQHandler) refers (Special) to use_no_semi_2.o(.text) for __use_no_semihosting
    usart.o(i.DMA1_Stream3_IRQHandler) refers to stm32f4xx_dma.o(i.DMA_GetITStatus) for DMA_GetITStatus
    usart.o(i.DMA1_Stream3_IRQHandler) refers to stm32f4xx_dma.o(i.DMA_Cmd) for DMA_Cmd
    usart.o(i.DMA1_Stream3_IRQHandler) refers to stm32f4xx_dma.o(i.DMA_SetCurrDataCounter) for DMA_SetCurrDataCounter
    usart.o(i.DMA1_Stream3_IRQHandler) refers to stm32f4xx_dma.o(i.DMA_ClearITPendingBit) for DMA_ClearITPendingBit
    usart.o(i.NUC_Decode_Task) refers (Special) to use_no_semi_2.o(.text) for __use_no_semihosting
    usart.o(i.NUC_Decode_Task) refers to usart.o(i.NUC_Init) for NUC_Init
    usart.o(i.NUC_Decode_Task) refers to tasks.o(i.vTaskDelay) for vTaskDelay
    usart.o(i.NUC_Decode_Task) refers to tasks.o(i.ulTaskNotifyTake) for ulTaskNotifyTake
    usart.o(i.NUC_Decode_Task) refers to usart.o(i.u8ToShort) for u8ToShort
    usart.o(i.NUC_Decode_Task) refers to usart.o(.bss) for Usart3Rx_Info
    usart.o(i.NUC_Decode_Task) refers to general.o(.data) for NUC_Lost_Time
    usart.o(i.NUC_Decode_Task) refers to usart.o(.data) for NUC_Get_Time
    usart.o(i.NUC_Decode_Task) refers to ptz.o(.data) for PTZ_Mode
    usart.o(i.NUC_Decode_Task) refers to can.o(.data) for Yaw_Real_Angle
    usart.o(i.NUC_Init) refers (Special) to use_no_semi_2.o(.text) for __use_no_semihosting
    usart.o(i.NUC_Init) refers to stm32f4xx_rcc.o(i.RCC_AHB1PeriphClockCmd) for RCC_AHB1PeriphClockCmd
    usart.o(i.NUC_Init) refers to stm32f4xx_rcc.o(i.RCC_APB1PeriphClockCmd) for RCC_APB1PeriphClockCmd
    usart.o(i.NUC_Init) refers to stm32f4xx_gpio.o(i.GPIO_PinAFConfig) for GPIO_PinAFConfig
    usart.o(i.NUC_Init) refers to stm32f4xx_gpio.o(i.GPIO_Init) for GPIO_Init
    usart.o(i.NUC_Init) refers to stm32f4xx_usart.o(i.USART_Init) for USART_Init
    usart.o(i.NUC_Init) refers to stm32f4xx_usart.o(i.USART_ITConfig) for USART_ITConfig
    usart.o(i.NUC_Init) refers to stm32f4xx_usart.o(i.USART_Cmd) for USART_Cmd
    usart.o(i.NUC_Init) refers to stm32f4xx_usart.o(i.USART_DMACmd) for USART_DMACmd
    usart.o(i.NUC_Init) refers to misc.o(i.NVIC_Init) for NVIC_Init
    usart.o(i.NUC_Init) refers to stm32f4xx_dma.o(i.DMA_Cmd) for DMA_Cmd
    usart.o(i.NUC_Init) refers to stm32f4xx_dma.o(i.DMA_DeInit) for DMA_DeInit
    usart.o(i.NUC_Init) refers to stm32f4xx_dma.o(i.DMA_Init) for DMA_Init
    usart.o(i.NUC_Init) refers to stm32f4xx_dma.o(i.DMA_ITConfig) for DMA_ITConfig
    usart.o(i.NUC_Init) refers to delay.o(i.delay_ms) for delay_ms
    usart.o(i.NUC_Init) refers to usart.o(.bss) for Usart3Rx_Info
    usart.o(i.UART8_IRQHandler) refers (Special) to use_no_semi_2.o(.text) for __use_no_semihosting
    usart.o(i.UART8_IRQHandler) refers to stm32f4xx_usart.o(i.USART_GetITStatus) for USART_GetITStatus
    usart.o(i.UART8_IRQHandler) refers to stm32f4xx_dma.o(i.DMA_Cmd) for DMA_Cmd
    usart.o(i.UART8_IRQHandler) refers to stm32f4xx_dma.o(i.DMA_SetCurrDataCounter) for DMA_SetCurrDataCounter
    usart.o(i.UART8_IRQHandler) refers to tasks.o(i.vTaskNotifyGiveFromISR) for vTaskNotifyGiveFromISR
    usart.o(i.UART8_IRQHandler) refers to app_task.o(.data) for Up_To_Down_Decode_Task_Handler
    usart.o(i.USART3_IRQHandler) refers (Special) to use_no_semi_2.o(.text) for __use_no_semihosting
    usart.o(i.USART3_IRQHandler) refers to stm32f4xx_usart.o(i.USART_GetITStatus) for USART_GetITStatus
    usart.o(i.USART3_IRQHandler) refers to stm32f4xx_dma.o(i.DMA_Cmd) for DMA_Cmd
    usart.o(i.USART3_IRQHandler) refers to stm32f4xx_dma.o(i.DMA_SetCurrDataCounter) for DMA_SetCurrDataCounter
    usart.o(i.USART3_IRQHandler) refers to tasks.o(i.vTaskNotifyGiveFromISR) for vTaskNotifyGiveFromISR
    usart.o(i.USART3_IRQHandler) refers to app_task.o(.data) for NUC_Decode_Task_Handler
    usart.o(i.USART3_Send_NUC) refers (Special) to use_no_semi_2.o(.text) for __use_no_semihosting
    usart.o(i.USART3_Send_NUC) refers to usart.o(i.bit32TObit8) for bit32TObit8
    usart.o(i.USART3_Send_NUC) refers to usart.o(i.shortTou8) for shortTou8
    usart.o(i.USART3_Send_NUC) refers to stm32f4xx_dma.o(i.DMA_Cmd) for DMA_Cmd
    usart.o(i.USART3_Send_NUC) refers to usart.o(.bss) for Up_To_Down_TypeStruct
    usart.o(i.USART3_Send_NUC) refers to imu.o(.data) for Yaw_Send_NUC_Angle_IMU
    usart.o(i.USART3_Send_NUC) refers to usart.o(.data) for Yaw_Angle
    usart.o(i.USART3_Send_NUC) refers to can.o(.bss) for Pitch_Motor_206
    usart.o(i.USART3_Send_NUC) refers to imu.o(.bss) for IMU_Real_Data
    usart.o(i.USART3_Send_NUC) refers to ptz.o(.data) for PTZ_Mode
    usart.o(i.USART6_IRQHandler) refers (Special) to use_no_semi_2.o(.text) for __use_no_semihosting
    usart.o(i.USART6_IRQHandler) refers to stm32f4xx_usart.o(i.USART_GetITStatus) for USART_GetITStatus
    usart.o(i.USART6_IRQHandler) refers to stm32f4xx_usart.o(i.USART_ClearFlag) for USART_ClearFlag
    usart.o(i.USART6_Init) refers (Special) to use_no_semi_2.o(.text) for __use_no_semihosting
    usart.o(i.USART6_Init) refers to stm32f4xx_rcc.o(i.RCC_AHB1PeriphClockCmd) for RCC_AHB1PeriphClockCmd
    usart.o(i.USART6_Init) refers to stm32f4xx_rcc.o(i.RCC_APB2PeriphClockCmd) for RCC_APB2PeriphClockCmd
    usart.o(i.USART6_Init) refers to stm32f4xx_gpio.o(i.GPIO_PinAFConfig) for GPIO_PinAFConfig
    usart.o(i.USART6_Init) refers to stm32f4xx_gpio.o(i.GPIO_Init) for GPIO_Init
    usart.o(i.USART6_Init) refers to stm32f4xx_usart.o(i.USART_Init) for USART_Init
    usart.o(i.USART6_Init) refers to stm32f4xx_usart.o(i.USART_Cmd) for USART_Cmd
    usart.o(i.USART6_Init) refers to stm32f4xx_usart.o(i.USART_ITConfig) for USART_ITConfig
    usart.o(i.USART6_Init) refers to misc.o(i.NVIC_Init) for NVIC_Init
    usart.o(i.USART8_Init) refers (Special) to use_no_semi_2.o(.text) for __use_no_semihosting
    usart.o(i.USART8_Init) refers to stm32f4xx_rcc.o(i.RCC_AHB1PeriphClockCmd) for RCC_AHB1PeriphClockCmd
    usart.o(i.USART8_Init) refers to stm32f4xx_rcc.o(i.RCC_APB1PeriphClockCmd) for RCC_APB1PeriphClockCmd
    usart.o(i.USART8_Init) refers to stm32f4xx_gpio.o(i.GPIO_PinAFConfig) for GPIO_PinAFConfig
    usart.o(i.USART8_Init) refers to stm32f4xx_gpio.o(i.GPIO_Init) for GPIO_Init
    usart.o(i.USART8_Init) refers to stm32f4xx_usart.o(i.USART_Init) for USART_Init
    usart.o(i.USART8_Init) refers to stm32f4xx_usart.o(i.USART_Cmd) for USART_Cmd
    usart.o(i.USART8_Init) refers to stm32f4xx_usart.o(i.USART_ITConfig) for USART_ITConfig
    usart.o(i.USART8_Init) refers to misc.o(i.NVIC_Init) for NVIC_Init
    usart.o(i.USART8_Init) refers to stm32f4xx_usart.o(i.USART_DMACmd) for USART_DMACmd
    usart.o(i.USART8_Init) refers to stm32f4xx_dma.o(i.DMA_Cmd) for DMA_Cmd
    usart.o(i.USART8_Init) refers to stm32f4xx_dma.o(i.DMA_DeInit) for DMA_DeInit
    usart.o(i.USART8_Init) refers to stm32f4xx_dma.o(i.DMA_Init) for DMA_Init
    usart.o(i.USART8_Init) refers to stm32f4xx_dma.o(i.DMA_ITConfig) for DMA_ITConfig
    usart.o(i.USART8_Init) refers to usart.o(.bss) for Down_To_Up_Tx
    usart.o(i.USART8_Send_Task) refers (Special) to use_no_semi_2.o(.text) for __use_no_semihosting
    usart.o(i.USART8_Send_Task) refers to usart.o(i.USART8_Init) for USART8_Init
    usart.o(i.USART8_Send_Task) refers to tasks.o(i.vTaskDelay) for vTaskDelay
    usart.o(i.USART8_Send_Task) refers to tasks.o(i.ulTaskNotifyTake) for ulTaskNotifyTake
    usart.o(i.USART8_Send_Task) refers to usart.o(i.shortToint8) for shortToint8
    usart.o(i.USART8_Send_Task) refers to stm32f4xx_dma.o(i.DMA_Cmd) for DMA_Cmd
    usart.o(i.USART8_Send_Task) refers to can.o(.data) for Yaw_Real_Angle
    usart.o(i.USART8_Send_Task) refers to usart.o(.bss) for Down_To_Up_TypeStruct
    usart.o(i.USART_InitConfig) refers (Special) to use_no_semi_2.o(.text) for __use_no_semihosting
    usart.o(i.USART_InitConfig) refers to usart.o(i.USART6_Init) for USART6_Init
    usart.o(i.USART_InitConfig) refers to usart.o(i.USART8_Init) for USART8_Init
    usart.o(i.USART_InitConfig) refers to usart.o(i.NUC_Init) for NUC_Init
    usart.o(i.Up_To_Down_Decode_Task) refers (Special) to use_no_semi_2.o(.text) for __use_no_semihosting
    usart.o(i.Up_To_Down_Decode_Task) refers to tasks.o(i.ulTaskNotifyTake) for ulTaskNotifyTake
    usart.o(i.Up_To_Down_Decode_Task) refers to usart.o(i.int8ToShort) for int8ToShort
    usart.o(i.Up_To_Down_Decode_Task) refers to usart.o(.bss) for Up_To_DOWN_Rx
    usart.o(i.Up_To_Down_Decode_Task) refers to usart.o(.data) for Swing_Flag
    usart.o(i.Up_To_Down_Decode_Task) refers to ptz.o(.data) for PTZ_Mode
    usart.o(i._sys_exit) refers (Special) to use_no_semi_2.o(.text) for __use_no_semihosting
    usart.o(i.bit32TObit8) refers (Special) to use_no_semi_2.o(.text) for __use_no_semihosting
    usart.o(i.bit8TObit32) refers (Special) to use_no_semi_2.o(.text) for __use_no_semihosting
    usart.o(i.floatTou8) refers (Special) to use_no_semi_2.o(.text) for __use_no_semihosting
    usart.o(i.fputc) refers (Special) to use_no_semi_2.o(.text) for __use_no_semihosting
    usart.o(i.fputc) refers to stm32f4xx_usart.o(i.USART_GetFlagStatus) for USART_GetFlagStatus
    usart.o(i.fputc) refers to stm32f4xx_usart.o(i.USART_SendData) for USART_SendData
    usart.o(i.int8ToShort) refers (Special) to use_no_semi_2.o(.text) for __use_no_semihosting
    usart.o(i.shortToint8) refers (Special) to use_no_semi_2.o(.text) for __use_no_semihosting
    usart.o(i.shortTou8) refers (Special) to use_no_semi_2.o(.text) for __use_no_semihosting
    usart.o(i.u8ToShort) refers (Special) to use_no_semi_2.o(.text) for __use_no_semihosting
    usart.o(.bss) refers (Special) to use_no_semi_2.o(.text) for __use_no_semihosting
    usart.o(.data) refers (Special) to use_no_semi_2.o(.text) for __use_no_semihosting
    ptz.o(i.PTZ_Auto_No_Limit) refers to ffltll_clz.o(x$fpl$ffltll) for __aeabi_l2f
    ptz.o(i.PTZ_Auto_No_Limit) refers to pid.o(i.Pid_Calc) for Pid_Calc
    ptz.o(i.PTZ_Auto_No_Limit) refers to usart.o(.bss) for Down_NUC_Data_TypeStruct
    ptz.o(i.PTZ_Auto_No_Limit) refers to imu.o(.data) for Yaw_Send_NUC_Angle_IMU
    ptz.o(i.PTZ_Auto_No_Limit) refers to ptz.o(.data) for yaw
    ptz.o(i.PTZ_Auto_No_Limit) refers to can.o(.data) for Pitch_Real_MechanicalAngle
    ptz.o(i.PTZ_Auto_No_Limit) refers to pid.o(.bss) for PID_Armor_Yaw_205_Mechanical
    ptz.o(i.PTZ_Auto_No_Limit) refers to imu.o(.bss) for IMU_Real_Data
    ptz.o(i.PTZ_Auto_No_Limit) refers to can.o(.bss) for Yaw_Motor_205
    ptz.o(i.PTZ_Control_Hand) refers to pid.o(i.Pid_Calc) for Pid_Calc
    ptz.o(i.PTZ_Control_Hand) refers to ffltll_clz.o(x$fpl$ffltll) for __aeabi_l2f
    ptz.o(i.PTZ_Control_Hand) refers to dr16.o(.bss) for DBUS
    ptz.o(i.PTZ_Control_Hand) refers to ptz.o(.data) for ch2
    ptz.o(i.PTZ_Control_Hand) refers to imu.o(.data) for Yaw_Send_NUC_Angle_IMU
    ptz.o(i.PTZ_Control_Hand) refers to pid.o(.bss) for PID_Yaw_205_Mechanical
    ptz.o(i.PTZ_Control_Hand) refers to imu.o(.bss) for IMU_Real_Data
    ptz.o(i.PTZ_Control_Hand) refers to can.o(.bss) for Yaw_Motor_205
    ptz.o(i.PTZ_Control_Hand) refers to can.o(.data) for Pitch_Real_MechanicalAngle
    ptz.o(i.PTZ_Control_Task) refers to can.o(i.CAN1_Init) for CAN1_Init
    ptz.o(i.PTZ_Control_Task) refers to tasks.o(i.vTaskDelay) for vTaskDelay
    ptz.o(i.PTZ_Control_Task) refers to pid.o(i.PID_Init) for PID_Init
    ptz.o(i.PTZ_Control_Task) refers to ptz.o(i.PTZ_Init_Yaw) for PTZ_Init_Yaw
    ptz.o(i.PTZ_Control_Task) refers to imu.o(i.IMU_Init) for IMU_Init
    ptz.o(i.PTZ_Control_Task) refers to ptz.o(i.PTZ_Init_PITCH) for PTZ_Init_PITCH
    ptz.o(i.PTZ_Control_Task) refers to ptz.o(i.PTZ_Control_Hand) for PTZ_Control_Hand
    ptz.o(i.PTZ_Control_Task) refers to ptz.o(i.PTZ_Auto_No_Limit) for PTZ_Auto_No_Limit
    ptz.o(i.PTZ_Control_Task) refers to ptz.o(i.Y_Swing) for Y_Swing
    ptz.o(i.PTZ_Control_Task) refers to ptz.o(i.P_Swing) for P_Swing
    ptz.o(i.PTZ_Control_Task) refers to can.o(i.CAN1_TX_PTZ) for CAN1_TX_PTZ
    ptz.o(i.PTZ_Control_Task) refers to dr16.o(.bss) for DBUS
    ptz.o(i.PTZ_Control_Task) refers to ptz.o(.data) for PTZ_Mode
    ptz.o(i.PTZ_Init_PITCH) refers to ffltll_clz.o(x$fpl$ffltll) for __aeabi_l2f
    ptz.o(i.PTZ_Init_PITCH) refers to pid.o(i.Pid_Calc) for Pid_Calc
    ptz.o(i.PTZ_Init_PITCH) refers to can.o(i.CAN1_TX_PTZ) for CAN1_TX_PTZ
    ptz.o(i.PTZ_Init_PITCH) refers to tasks.o(i.vTaskDelay) for vTaskDelay
    ptz.o(i.PTZ_Init_PITCH) refers to ptz.o(.bss) for PTZ_Init_Value
    ptz.o(i.PTZ_Init_PITCH) refers to can.o(.data) for Pitch_Real_MechanicalAngle
    ptz.o(i.PTZ_Init_PITCH) refers to pid.o(.bss) for PID_Pitch_206_Mechanical_1
    ptz.o(i.PTZ_Init_PITCH) refers to can.o(.bss) for Pitch_Motor_206
    ptz.o(i.PTZ_Init_PITCH) refers to ptz.o(.data) for pitch
    ptz.o(i.PTZ_Init_Yaw) refers to tasks.o(i.vTaskDelay) for vTaskDelay
    ptz.o(i.PTZ_Init_Yaw) refers to ffltll_clz.o(x$fpl$ffltll) for __aeabi_l2f
    ptz.o(i.PTZ_Init_Yaw) refers to pid.o(i.Pid_Calc) for Pid_Calc
    ptz.o(i.PTZ_Init_Yaw) refers to can.o(i.CAN1_TX_PTZ) for CAN1_TX_PTZ
    ptz.o(i.PTZ_Init_Yaw) refers to ptz.o(.bss) for PTZ_Init_Value
    ptz.o(i.PTZ_Init_Yaw) refers to can.o(.bss) for Yaw_Motor_205
    ptz.o(i.PTZ_Init_Yaw) refers to can.o(.data) for Yaw_Real_MechanicalAngle
    ptz.o(i.PTZ_Init_Yaw) refers to pid.o(.bss) for PID_Yaw_205_Mechanical_1
    ptz.o(i.PTZ_Init_Yaw) refers to imu.o(.data) for Yaw_Send_NUC_Angle_IMU
    ptz.o(i.PTZ_Init_Yaw) refers to ptz.o(.data) for yaw
    ptz.o(i.P_Swing) refers to ffltll_clz.o(x$fpl$ffltll) for __aeabi_l2f
    ptz.o(i.P_Swing) refers to pid.o(i.Pid_Calc) for Pid_Calc
    ptz.o(i.P_Swing) refers to can.o(.data) for Pitch_Real_MechanicalAngle
    ptz.o(i.P_Swing) refers to ptz.o(.data) for speed
    ptz.o(i.P_Swing) refers to pid.o(.bss) for PID_Pitch_206_Mechanical
    ptz.o(i.P_Swing) refers to can.o(.bss) for Pitch_Motor_206
    ptz.o(i.Y_Swing) refers to pid.o(i.Pid_Calc) for Pid_Calc
    ptz.o(i.Y_Swing) refers to ptz.o(.data) for yaw
    ptz.o(i.Y_Swing) refers to imu.o(.data) for Yaw_Send_NUC_Angle_IMU
    ptz.o(i.Y_Swing) refers to pid.o(.bss) for PID_Yaw_205_Mechanical
    ptz.o(i.Y_Swing) refers to imu.o(.bss) for IMU_Real_Data
    ptz.o(i.Y_Swing) refers to can.o(.bss) for Yaw_Motor_205
    can.o(i.CAN1_Init) refers to stm32f4xx_rcc.o(i.RCC_AHB1PeriphClockCmd) for RCC_AHB1PeriphClockCmd
    can.o(i.CAN1_Init) refers to stm32f4xx_rcc.o(i.RCC_APB1PeriphClockCmd) for RCC_APB1PeriphClockCmd
    can.o(i.CAN1_Init) refers to stm32f4xx_gpio.o(i.GPIO_PinAFConfig) for GPIO_PinAFConfig
    can.o(i.CAN1_Init) refers to stm32f4xx_gpio.o(i.GPIO_Init) for GPIO_Init
    can.o(i.CAN1_Init) refers to misc.o(i.NVIC_Init) for NVIC_Init
    can.o(i.CAN1_Init) refers to stm32f4xx_can.o(i.CAN_DeInit) for CAN_DeInit
    can.o(i.CAN1_Init) refers to stm32f4xx_can.o(i.CAN_StructInit) for CAN_StructInit
    can.o(i.CAN1_Init) refers to stm32f4xx_can.o(i.CAN_Init) for CAN_Init
    can.o(i.CAN1_Init) refers to stm32f4xx_can.o(i.CAN_FilterInit) for CAN_FilterInit
    can.o(i.CAN1_Init) refers to stm32f4xx_can.o(i.CAN_ITConfig) for CAN_ITConfig
    can.o(i.CAN1_RX0_IRQHandler) refers to stm32f4xx_can.o(i.CAN_GetITStatus) for CAN_GetITStatus
    can.o(i.CAN1_RX0_IRQHandler) refers to stm32f4xx_can.o(i.CAN_Receive) for CAN_Receive
    can.o(i.CAN1_RX0_IRQHandler) refers to can.o(i.Position_Direction_Judge_Pitch) for Position_Direction_Judge_Pitch
    can.o(i.CAN1_RX0_IRQHandler) refers to can.o(i.Position_Direction_Judge) for Position_Direction_Judge
    can.o(i.CAN1_RX0_IRQHandler) refers to stm32f4xx_can.o(i.CAN_ClearITPendingBit) for CAN_ClearITPendingBit
    can.o(i.CAN1_RX0_IRQHandler) refers to can.o(.bss) for Friction_Wheel_203
    can.o(i.CAN1_TX_Friction) refers to stm32f4xx_can.o(i.CAN_Transmit) for CAN_Transmit
    can.o(i.CAN1_TX_Friction) refers to can.o(.bss) for Friction_Wheel_203
    can.o(i.CAN1_TX_Friction) refers to can.o(.data) for CAN1_Tx_Flag
    can.o(i.CAN1_TX_IRQHandler) refers to stm32f4xx_can.o(i.CAN_GetITStatus) for CAN_GetITStatus
    can.o(i.CAN1_TX_IRQHandler) refers to stm32f4xx_can.o(i.CAN_ClearITPendingBit) for CAN_ClearITPendingBit
    can.o(i.CAN1_TX_IRQHandler) refers to can.o(.data) for CAN1_Tx_Flag
    can.o(i.CAN1_TX_PTZ) refers to stm32f4xx_can.o(i.CAN_Transmit) for CAN_Transmit
    can.o(i.CAN1_TX_PTZ) refers to can.o(.bss) for Yaw_Motor_205
    can.o(i.CAN1_TX_PTZ) refers to can.o(.data) for CAN1_Tx_Flag
    can.o(i.Position_Direction_Judge) refers to llsdiv.o(.text) for __aeabi_ldivmod
    can.o(i.Position_Direction_Judge) refers to ffltll_clz.o(x$fpl$ffltll) for __aeabi_l2f
    can.o(i.Position_Direction_Judge) refers to can.o(.data) for Yaw_Last_Angle_Init
    can.o(i.Position_Direction_Judge) refers to can.o(.bss) for Yaw_Motor_205
    can.o(i.Position_Direction_Judge) refers to ptz.o(.bss) for PTZ_Init_Value
    can.o(i.Position_Direction_Judge) refers to dr16.o(.bss) for DBUS
    can.o(i.Position_Direction_Judge) refers to ptz.o(.data) for PTZ_Mode
    can.o(i.Position_Direction_Judge_Pitch) refers to can.o(.data) for Pitch_Last_Angle_Init
    can.o(i.Position_Direction_Judge_Pitch) refers to can.o(.bss) for Pitch_Motor_206
    pid.o(i.PID_Init) refers to pid.o(.bss) for PID_Yaw_205_Mechanical_1
    pid.o(i.Pid_Calc) refers to f2d.o(x$fpl$f2d) for __aeabi_f2d
    pid.o(i.Pid_Calc) refers to fabs.o(i.__hardfp_fabs) for __hardfp_fabs
    pid.o(i.Pid_Calc) refers to dleqf.o(x$fpl$dleqf) for __aeabi_cdcmple
    pid.o(i.Pid_Calc) refers to drleqf.o(x$fpl$drleqf) for __aeabi_cdrcmple
    pid.o(i.Pid_Calc) refers to deqf.o(x$fpl$deqf) for __aeabi_cdcmpeq
    imu.o(i.EXTI9_5_IRQHandler) refers to stm32f4xx_exti.o(i.EXTI_GetITStatus) for EXTI_GetITStatus
    imu.o(i.EXTI9_5_IRQHandler) refers to tasks.o(i.vTaskNotifyGiveFromISR) for vTaskNotifyGiveFromISR
    imu.o(i.EXTI9_5_IRQHandler) refers to stm32f4xx_exti.o(i.EXTI_ClearITPendingBit) for EXTI_ClearITPendingBit
    imu.o(i.EXTI9_5_IRQHandler) refers to app_task.o(.data) for IMU_Get_Data_Task_Handler
    imu.o(i.IMU_Get_Data) refers to imu.o(i.MPU6500_Read_Regs) for MPU6500_Read_Regs
    imu.o(i.IMU_Get_Data) refers to dflt_clz.o(x$fpl$dflt) for __aeabi_i2d
    imu.o(i.IMU_Get_Data) refers to daddsub_clz.o(x$fpl$dsub) for __aeabi_dsub
    imu.o(i.IMU_Get_Data) refers to d2f.o(x$fpl$d2f) for __aeabi_d2f
    imu.o(i.IMU_Get_Data) refers to f2d.o(x$fpl$f2d) for __aeabi_f2d
    imu.o(i.IMU_Get_Data) refers to fabs.o(i.__hardfp_fabs) for __hardfp_fabs
    imu.o(i.IMU_Get_Data) refers to dleqf.o(x$fpl$dleqf) for __aeabi_cdcmple
    imu.o(i.IMU_Get_Data) refers to imu.o(.bss) for IMU_Raw_Data
    imu.o(i.IMU_Get_Data) refers to imu.o(.data) for PTZ_MPU_Ignore
    imu.o(i.IMU_Get_Data_Task) refers to tasks.o(i.ulTaskNotifyTake) for ulTaskNotifyTake
    imu.o(i.IMU_Get_Data_Task) refers to usart.o(i.USART3_Send_NUC) for USART3_Send_NUC
    imu.o(i.IMU_Get_Data_Task) refers to imu.o(i.IMU_Get_Data) for IMU_Get_Data
    imu.o(i.IMU_Init) refers to rt_memcpy_w.o(.text) for __aeabi_memcpy4
    imu.o(i.IMU_Init) refers to spi.o(i.SPI_GPIO_InitConfig) for SPI_GPIO_InitConfig
    imu.o(i.IMU_Init) refers to stm32f4xx_gpio.o(i.GPIO_ResetBits) for GPIO_ResetBits
    imu.o(i.IMU_Init) refers to imu.o(i.MPU6500_Read_Reg) for MPU6500_Read_Reg
    imu.o(i.IMU_Init) refers to stm32f4xx_gpio.o(i.GPIO_SetBits) for GPIO_SetBits
    imu.o(i.IMU_Init) refers to imu.o(i.MPU6500_Write_Reg) for MPU6500_Write_Reg
    imu.o(i.IMU_Init) refers to delay.o(i.delay_ms) for delay_ms
    imu.o(i.IMU_Init) refers to imu.o(i.MPU6500_Gyro_Cali) for MPU6500_Gyro_Cali
    imu.o(i.IMU_Init) refers to imu.o(i.MPU_6500_Interrupt_InitConfig) for MPU_6500_Interrupt_InitConfig
    imu.o(i.IMU_Init) refers to imu.o(.constdata) for .constdata
    imu.o(i.MPU6500_Gyro_Cali) refers to imu.o(i.IMU_Get_Data) for IMU_Get_Data
    imu.o(i.MPU6500_Gyro_Cali) refers to delay.o(i.delay_ms) for delay_ms
    imu.o(i.MPU6500_Gyro_Cali) refers to f2d.o(x$fpl$f2d) for __aeabi_f2d
    imu.o(i.MPU6500_Gyro_Cali) refers to imu.o(.bss) for IMU_Offset_Data
    imu.o(i.MPU6500_Read_Reg) refers to stm32f4xx_gpio.o(i.GPIO_ResetBits) for GPIO_ResetBits
    imu.o(i.MPU6500_Read_Reg) refers to spi.o(i.SPI5_ReadWriteByte) for SPI5_ReadWriteByte
    imu.o(i.MPU6500_Read_Reg) refers to stm32f4xx_gpio.o(i.GPIO_SetBits) for GPIO_SetBits
    imu.o(i.MPU6500_Read_Regs) refers to imu.o(i.MPU6500_Read_Reg) for MPU6500_Read_Reg
    imu.o(i.MPU6500_Write_Reg) refers to stm32f4xx_gpio.o(i.GPIO_ResetBits) for GPIO_ResetBits
    imu.o(i.MPU6500_Write_Reg) refers to spi.o(i.SPI5_ReadWriteByte) for SPI5_ReadWriteByte
    imu.o(i.MPU6500_Write_Reg) refers to stm32f4xx_gpio.o(i.GPIO_SetBits) for GPIO_SetBits
    imu.o(i.MPU_6500_Interrupt_InitConfig) refers to stm32f4xx_rcc.o(i.RCC_APB2PeriphClockCmd) for RCC_APB2PeriphClockCmd
    imu.o(i.MPU_6500_Interrupt_InitConfig) refers to stm32f4xx_rcc.o(i.RCC_AHB1PeriphClockCmd) for RCC_AHB1PeriphClockCmd
    imu.o(i.MPU_6500_Interrupt_InitConfig) refers to stm32f4xx_gpio.o(i.GPIO_Init) for GPIO_Init
    imu.o(i.MPU_6500_Interrupt_InitConfig) refers to stm32f4xx_syscfg.o(i.SYSCFG_EXTILineConfig) for SYSCFG_EXTILineConfig
    imu.o(i.MPU_6500_Interrupt_InitConfig) refers to stm32f4xx_exti.o(i.EXTI_Init) for EXTI_Init
    imu.o(i.MPU_6500_Interrupt_InitConfig) refers to misc.o(i.NVIC_Init) for NVIC_Init
    dr16.o(i.DR16_InitConfig) refers to dr16.o(i.RC_Init) for RC_Init
    dr16.o(i.DR16_InitConfig) refers to dr16.o(.bss) for SBUS_rx_buf
    dr16.o(i.RC_Init) refers to stm32f4xx_rcc.o(i.RCC_AHB1PeriphClockCmd) for RCC_AHB1PeriphClockCmd
    dr16.o(i.RC_Init) refers to stm32f4xx_rcc.o(i.RCC_APB2PeriphClockCmd) for RCC_APB2PeriphClockCmd
    dr16.o(i.RC_Init) refers to stm32f4xx_rcc.o(i.RCC_APB2PeriphResetCmd) for RCC_APB2PeriphResetCmd
    dr16.o(i.RC_Init) refers to stm32f4xx_gpio.o(i.GPIO_PinAFConfig) for GPIO_PinAFConfig
    dr16.o(i.RC_Init) refers to stm32f4xx_gpio.o(i.GPIO_Init) for GPIO_Init
    dr16.o(i.RC_Init) refers to stm32f4xx_usart.o(i.USART_DeInit) for USART_DeInit
    dr16.o(i.RC_Init) refers to stm32f4xx_usart.o(i.USART_Init) for USART_Init
    dr16.o(i.RC_Init) refers to stm32f4xx_usart.o(i.USART_DMACmd) for USART_DMACmd
    dr16.o(i.RC_Init) refers to stm32f4xx_usart.o(i.USART_ClearFlag) for USART_ClearFlag
    dr16.o(i.RC_Init) refers to stm32f4xx_usart.o(i.USART_ITConfig) for USART_ITConfig
    dr16.o(i.RC_Init) refers to stm32f4xx_usart.o(i.USART_Cmd) for USART_Cmd
    dr16.o(i.RC_Init) refers to misc.o(i.NVIC_Init) for NVIC_Init
    dr16.o(i.RC_Init) refers to stm32f4xx_dma.o(i.DMA_DeInit) for DMA_DeInit
    dr16.o(i.RC_Init) refers to stm32f4xx_dma.o(i.DMA_Init) for DMA_Init
    dr16.o(i.RC_Init) refers to stm32f4xx_dma.o(i.DMA_DoubleBufferModeConfig) for DMA_DoubleBufferModeConfig
    dr16.o(i.RC_Init) refers to stm32f4xx_dma.o(i.DMA_DoubleBufferModeCmd) for DMA_DoubleBufferModeCmd
    dr16.o(i.RC_Init) refers to stm32f4xx_dma.o(i.DMA_Cmd) for DMA_Cmd
    dr16.o(i.SBUS_TO_RC) refers to dr16.o(.bss) for DBUS
    dr16.o(i.USART1_IRQHandler) refers to stm32f4xx_usart.o(i.USART_GetITStatus) for USART_GetITStatus
    dr16.o(i.USART1_IRQHandler) refers to stm32f4xx_usart.o(i.USART_ReceiveData) for USART_ReceiveData
    dr16.o(i.USART1_IRQHandler) refers to stm32f4xx_dma.o(i.DMA_GetCurrentMemoryTarget) for DMA_GetCurrentMemoryTarget
    dr16.o(i.USART1_IRQHandler) refers to stm32f4xx_dma.o(i.DMA_Cmd) for DMA_Cmd
    dr16.o(i.USART1_IRQHandler) refers to stm32f4xx_dma.o(i.DMA_GetCurrDataCounter) for DMA_GetCurrDataCounter
    dr16.o(i.USART1_IRQHandler) refers to stm32f4xx_dma.o(i.DMA_SetCurrDataCounter) for DMA_SetCurrDataCounter
    dr16.o(i.USART1_IRQHandler) refers to stm32f4xx_dma.o(i.DMA_ClearFlag) for DMA_ClearFlag
    dr16.o(i.USART1_IRQHandler) refers to dr16.o(i.SBUS_TO_RC) for SBUS_TO_RC
    dr16.o(i.USART1_IRQHandler) refers to dr16.o(.data) for this_time_rx_len
    dr16.o(i.USART1_IRQHandler) refers to dr16.o(.bss) for SBUS_rx_buf
    shoot.o(i.MoCaLun_Close_3508) refers to pid.o(i.Pid_Calc) for Pid_Calc
    shoot.o(i.MoCaLun_Close_3508) refers to can.o(.bss) for Friction_Wheel_203
    shoot.o(i.MoCaLun_Close_3508) refers to pid.o(.bss) for PID_Friction_Wheel_203
    shoot.o(i.MoCaLun_Control_Task) refers to shoot.o(i.Shoot_Init) for Shoot_Init
    shoot.o(i.MoCaLun_Control_Task) refers to severo.o(i.Severo_Init) for Severo_Init
    shoot.o(i.MoCaLun_Control_Task) refers to tasks.o(i.vTaskDelay) for vTaskDelay
    shoot.o(i.MoCaLun_Control_Task) refers to severo.o(i.Shoot_Allow) for Shoot_Allow
    shoot.o(i.MoCaLun_Control_Task) refers to severo.o(i.Shoot_Forbid1) for Shoot_Forbid1
    shoot.o(i.MoCaLun_Control_Task) refers to severo.o(i.Shoot_Forbid) for Shoot_Forbid
    shoot.o(i.MoCaLun_Control_Task) refers to shoot.o(i.MoCaLun_Open_3508) for MoCaLun_Open_3508
    shoot.o(i.MoCaLun_Control_Task) refers to shoot.o(i.MoCaLun_Close_3508) for MoCaLun_Close_3508
    shoot.o(i.MoCaLun_Control_Task) refers to can.o(i.CAN1_TX_Friction) for CAN1_TX_Friction
    shoot.o(i.MoCaLun_Control_Task) refers to usart.o(.bss) for Up_To_Down_TypeStruct
    shoot.o(i.MoCaLun_Control_Task) refers to dr16.o(.bss) for DBUS
    shoot.o(i.MoCaLun_Open_3508) refers to pid.o(i.Pid_Calc) for Pid_Calc
    shoot.o(i.MoCaLun_Open_3508) refers to can.o(.bss) for Friction_Wheel_203
    shoot.o(i.MoCaLun_Open_3508) refers to shoot.o(.data) for Fricion_Speed_203
    shoot.o(i.MoCaLun_Open_3508) refers to pid.o(.bss) for PID_Friction_Wheel_203
    shoot.o(i.Shoot_Init) refers to can.o(i.CAN1_TX_Friction) for CAN1_TX_Friction
    shoot.o(i.Shoot_Init) refers to can.o(.bss) for Friction_Wheel_203
    severo.o(i.Severo_Init) refers to stm32f4xx_rcc.o(i.RCC_APB1PeriphClockCmd) for RCC_APB1PeriphClockCmd
    severo.o(i.Severo_Init) refers to stm32f4xx_rcc.o(i.RCC_AHB1PeriphClockCmd) for RCC_AHB1PeriphClockCmd
    severo.o(i.Severo_Init) refers to stm32f4xx_gpio.o(i.GPIO_PinAFConfig) for GPIO_PinAFConfig
    severo.o(i.Severo_Init) refers to stm32f4xx_gpio.o(i.GPIO_Init) for GPIO_Init
    severo.o(i.Severo_Init) refers to stm32f4xx_tim.o(i.TIM_TimeBaseInit) for TIM_TimeBaseInit
    severo.o(i.Severo_Init) refers to stm32f4xx_tim.o(i.TIM_OC4Init) for TIM_OC4Init
    severo.o(i.Severo_Init) refers to stm32f4xx_tim.o(i.TIM_OC4PreloadConfig) for TIM_OC4PreloadConfig
    severo.o(i.Severo_Init) refers to stm32f4xx_tim.o(i.TIM_ARRPreloadConfig) for TIM_ARRPreloadConfig
    severo.o(i.Severo_Init) refers to stm32f4xx_tim.o(i.TIM_Cmd) for TIM_Cmd
    severo.o(i.Shoot_Allow) refers to stm32f4xx_tim.o(i.TIM_SetCompare4) for TIM_SetCompare4
    severo.o(i.Shoot_Allow) refers to severo.o(.data) for Shoot_Allow_PWM
    severo.o(i.Shoot_Forbid) refers to stm32f4xx_tim.o(i.TIM_SetCompare4) for TIM_SetCompare4
    severo.o(i.Shoot_Forbid) refers to severo.o(.data) for Shoot_Forbid_PWM
    severo.o(i.Shoot_Forbid1) refers to stm32f4xx_tim.o(i.TIM_SetCompare4) for TIM_SetCompare4
    severo.o(i.Shoot_Forbid1) refers to severo.o(.data) for Shoot_Forbid_PWM1
    general.o(i.TIM7_IRQHandler) refers to stm32f4xx_tim.o(i.TIM_GetITStatus) for TIM_GetITStatus
    general.o(i.TIM7_IRQHandler) refers to beep.o(i.Beep_ON) for Beep_ON
    general.o(i.TIM7_IRQHandler) refers to beep.o(i.Beep_OFF) for Beep_OFF
    general.o(i.TIM7_IRQHandler) refers to tasks.o(i.vTaskNotifyGiveFromISR) for vTaskNotifyGiveFromISR
    general.o(i.TIM7_IRQHandler) refers to stm32f4xx_tim.o(i.TIM_ClearITPendingBit) for TIM_ClearITPendingBit
    general.o(i.TIM7_IRQHandler) refers to general.o(.data) for TimeTick1ms
    general.o(i.TIM7_IRQHandler) refers to ptz.o(.data) for PTZ_Mode
    general.o(i.TIM7_IRQHandler) refers to led.o(.data) for NUC_Lost_Flag_Music
    general.o(i.TIM7_IRQHandler) refers to usart.o(.bss) for Down_To_Up_TypeStruct
    general.o(i.TIM7_IRQHandler) refers to app_task.o(.data) for USART8_Send_Task_Handler
    general.o(i.Tick_TIM7_Init) refers to stm32f4xx_rcc.o(i.RCC_APB1PeriphClockCmd) for RCC_APB1PeriphClockCmd
    general.o(i.Tick_TIM7_Init) refers to stm32f4xx_tim.o(i.TIM_TimeBaseInit) for TIM_TimeBaseInit
    general.o(i.Tick_TIM7_Init) refers to stm32f4xx_tim.o(i.TIM_ITConfig) for TIM_ITConfig
    general.o(i.Tick_TIM7_Init) refers to stm32f4xx_tim.o(i.TIM_Cmd) for TIM_Cmd
    general.o(i.Tick_TIM7_Init) refers to misc.o(i.NVIC_Init) for NVIC_Init
    use_no_semi_2.o(.text) refers (Special) to use_no_semi.o(.text) for __use_no_semihosting_swi
    llsdiv.o(.text) refers to lludivv7m.o(.text) for __aeabi_uldivmod
    __2printf.o(.text) refers to _printf_char_file.o(.text) for _printf_char_file
    __2printf.o(.text) refers to usart.o(.data) for __stdout
    __2sprintf.o(.text) refers to _printf_char_common.o(.text) for _printf_char_common
    __2sprintf.o(.text) refers to _sputc.o(.text) for _sputc
    noretval__2printf.o(.text) refers to _printf_char_file.o(.text) for _printf_char_file
    noretval__2printf.o(.text) refers to usart.o(.data) for __stdout
    noretval__2sprintf.o(.text) refers to _printf_char_common.o(.text) for _printf_char_common
    noretval__2sprintf.o(.text) refers to _sputc.o(.text) for _sputc
    __printf.o(.text) refers to _printf_percent.o(.ARM.Collect$$_printf_percent$$00000000) for _printf_percent
    _printf_str.o(.text) refers (Special) to _printf_char.o(.text) for _printf_cs_common
    _printf_dec.o(.text) refers to _printf_intcommon.o(.text) for _printf_int_common
    __printf_flags.o(.text) refers to _printf_percent.o(.ARM.Collect$$_printf_percent$$00000000) for _printf_percent
    __printf_flags.o(.text) refers to __printf_flags.o(.constdata) for .constdata
    __printf_ss.o(.text) refers to _printf_percent.o(.ARM.Collect$$_printf_percent$$00000000) for _printf_percent
    __printf_flags_ss.o(.text) refers to _printf_percent.o(.ARM.Collect$$_printf_percent$$00000000) for _printf_percent
    __printf_flags_ss.o(.text) refers to __printf_flags_ss.o(.constdata) for .constdata
    __printf_wp.o(.text) refers to __printf_wp.o(i._is_digit) for _is_digit
    __printf_wp.o(.text) refers to _printf_percent.o(.ARM.Collect$$_printf_percent$$00000000) for _printf_percent
    __printf_flags_wp.o(.text) refers to __printf_wp.o(i._is_digit) for _is_digit
    __printf_flags_wp.o(.text) refers to _printf_percent.o(.ARM.Collect$$_printf_percent$$00000000) for _printf_percent
    __printf_flags_wp.o(.text) refers to __printf_flags_wp.o(.constdata) for .constdata
    __printf_ss_wp.o(.text) refers to __printf_wp.o(i._is_digit) for _is_digit
    __printf_ss_wp.o(.text) refers to _printf_percent.o(.ARM.Collect$$_printf_percent$$00000000) for _printf_percent
    __printf_flags_ss_wp.o(.text) refers to __printf_wp.o(i._is_digit) for _is_digit
    __printf_flags_ss_wp.o(.text) refers to _printf_percent.o(.ARM.Collect$$_printf_percent$$00000000) for _printf_percent
    __printf_flags_ss_wp.o(.text) refers to __printf_flags_ss_wp.o(.constdata) for .constdata
    _printf_c.o(.ARM.Collect$$_printf_percent$$00000013) refers (Weak) to _printf_char.o(.text) for _printf_char
    _printf_s.o(.ARM.Collect$$_printf_percent$$00000014) refers (Weak) to _printf_char.o(.text) for _printf_string
    _printf_d.o(.ARM.Collect$$_printf_percent$$00000009) refers (Weak) to _printf_dec.o(.text) for _printf_int_dec
    _printf_u.o(.ARM.Collect$$_printf_percent$$0000000A) refers (Weak) to _printf_dec.o(.text) for _printf_int_dec
    _printf_percent.o(.ARM.Collect$$_printf_percent$$00000000) refers (Special) to _printf_percent_end.o(.ARM.Collect$$_printf_percent$$00000017) for _printf_percent_end
    rt_memcpy_v6.o(.text) refers to rt_memcpy_w.o(.text) for __aeabi_memcpy4
    aeabi_memset.o(.text) refers to rt_memclr.o(.text) for _memset
    __main.o(!!!main) refers to __rtentry.o(.ARM.Collect$$rtentry$$00000000) for __rt_entry
    d2f.o(x$fpl$d2f) refers (Special) to usenofp.o(x$fpl$usenofp) for __I$use$fp
    d2f.o(x$fpl$d2f) refers to fretinf.o(x$fpl$fretinf) for __fpl_fretinf
    d2f.o(x$fpl$d2f) refers to dnaninf.o(x$fpl$dnaninf) for __fpl_dnaninf
    daddsub_clz.o(x$fpl$dadd) refers (Special) to usenofp.o(x$fpl$usenofp) for __I$use$fp
    daddsub_clz.o(x$fpl$dadd) refers to daddsub_clz.o(x$fpl$dsub) for _dsub1
    daddsub_clz.o(x$fpl$dadd) refers to dretinf.o(x$fpl$dretinf) for __fpl_dretinf
    daddsub_clz.o(x$fpl$dadd) refers to dnaninf.o(x$fpl$dnaninf) for __fpl_dnaninf
    daddsub_clz.o(x$fpl$drsb) refers (Special) to usenofp.o(x$fpl$usenofp) for __I$use$fp
    daddsub_clz.o(x$fpl$drsb) refers to daddsub_clz.o(x$fpl$dadd) for _dadd1
    daddsub_clz.o(x$fpl$drsb) refers to daddsub_clz.o(x$fpl$dsub) for _dsub1
    daddsub_clz.o(x$fpl$dsub) refers (Special) to usenofp.o(x$fpl$usenofp) for __I$use$fp
    daddsub_clz.o(x$fpl$dsub) refers to daddsub_clz.o(x$fpl$dadd) for _dadd1
    daddsub_clz.o(x$fpl$dsub) refers to dnaninf.o(x$fpl$dnaninf) for __fpl_dnaninf
    deqf.o(x$fpl$deqf) refers (Special) to usenofp.o(x$fpl$usenofp) for __I$use$fp
    deqf.o(x$fpl$deqf) refers to dnaninf.o(x$fpl$dnaninf) for __fpl_dnaninf
    deqf.o(x$fpl$deqf) refers to dcmpi.o(x$fpl$dcmpinf) for __fpl_dcmp_Inf
    dflt_clz.o(x$fpl$dfltu) refers (Special) to usenofp.o(x$fpl$usenofp) for __I$use$fp
    dflt_clz.o(x$fpl$dflt) refers (Special) to usenofp.o(x$fpl$usenofp) for __I$use$fp
    dflt_clz.o(x$fpl$dfltn) refers (Special) to usenofp.o(x$fpl$usenofp) for __I$use$fp
    dleqf.o(x$fpl$dleqf) refers (Special) to usenofp.o(x$fpl$usenofp) for __I$use$fp
    dleqf.o(x$fpl$dleqf) refers to dnaninf.o(x$fpl$dnaninf) for __fpl_dnaninf
    dleqf.o(x$fpl$dleqf) refers to dcmpi.o(x$fpl$dcmpinf) for __fpl_dcmp_Inf
    drleqf.o(x$fpl$drleqf) refers (Special) to usenofp.o(x$fpl$usenofp) for __I$use$fp
    drleqf.o(x$fpl$drleqf) refers to dleqf.o(x$fpl$dleqf) for __fpl_dcmple_InfNaN
    f2d.o(x$fpl$f2d) refers (Special) to usenofp.o(x$fpl$usenofp) for __I$use$fp
    f2d.o(x$fpl$f2d) refers to fnaninf.o(x$fpl$fnaninf) for __fpl_fnaninf
    f2d.o(x$fpl$f2d) refers to dretinf.o(x$fpl$dretinf) for __fpl_dretinf
    ffltll_clz.o(x$fpl$ffltll) refers (Special) to usenofp.o(x$fpl$usenofp) for __I$use$fp
    fabs.o(i.__hardfp_fabs) refers (Special) to usenofp.o(x$fpl$usenofp) for __I$use$fp
    fabs.o(i.__softfp_fabs) refers (Special) to usenofp.o(x$fpl$usenofp) for __I$use$fp
    fabs.o(i.fabs) refers (Special) to usenofp.o(x$fpl$usenofp) for __I$use$fp
    __rtentry.o(.ARM.Collect$$rtentry$$00000000) refers (Special) to __rtentry2.o(.ARM.Collect$$rtentry$$0000000A) for __rt_entry_li
    __rtentry.o(.ARM.Collect$$rtentry$$00000000) refers (Special) to __rtentry2.o(.ARM.Collect$$rtentry$$0000000D) for __rt_entry_main
    __rtentry.o(.ARM.Collect$$rtentry$$00000000) refers (Special) to __rtentry2.o(.ARM.Collect$$rtentry$$0000000C) for __rt_entry_postli_1
    __rtentry.o(.ARM.Collect$$rtentry$$00000000) refers (Special) to __rtentry2.o(.ARM.Collect$$rtentry$$00000009) for __rt_entry_postsh_1
    __rtentry.o(.ARM.Collect$$rtentry$$00000000) refers (Special) to __rtentry2.o(.ARM.Collect$$rtentry$$00000002) for __rt_entry_presh_1
    __rtentry.o(.ARM.Collect$$rtentry$$00000000) refers (Special) to __rtentry4.o(.ARM.Collect$$rtentry$$00000004) for __rt_entry_sh
    _printf_char_common.o(.text) refers to __printf.o(.text) for __printf
    _printf_char.o(.text) refers (Weak) to _printf_str.o(.text) for _printf_str
    _printf_char_file.o(.text) refers to _printf_char_common.o(.text) for _printf_char_common
    _printf_char_file.o(.text) refers to ferror.o(.text) for ferror
    _printf_char_file.o(.text) refers to usart.o(i.fputc) for fputc
    rt_memclr.o(.text) refers to rt_memclr_w.o(.text) for _memset_w
    dcmpi.o(x$fpl$dcmpinf) refers (Special) to usenofp.o(x$fpl$usenofp) for __I$use$fp
    dnaninf.o(x$fpl$dnaninf) refers (Special) to usenofp.o(x$fpl$usenofp) for __I$use$fp
    dretinf.o(x$fpl$dretinf) refers (Special) to usenofp.o(x$fpl$usenofp) for __I$use$fp
    fnaninf.o(x$fpl$fnaninf) refers (Special) to usenofp.o(x$fpl$usenofp) for __I$use$fp
    fretinf.o(x$fpl$fretinf) refers (Special) to usenofp.o(x$fpl$usenofp) for __I$use$fp
    __rtentry2.o(.ARM.Collect$$rtentry$$00000008) refers to boardinit2.o(.text) for _platform_post_stackheap_init
    __rtentry2.o(.ARM.Collect$$rtentry$$0000000A) refers to libinit.o(.ARM.Collect$$libinit$$00000000) for __rt_lib_init
    __rtentry2.o(.ARM.Collect$$rtentry$$0000000B) refers to boardinit3.o(.text) for _platform_post_lib_init
    __rtentry2.o(.ARM.Collect$$rtentry$$0000000D) refers to main.o(i.main) for main
    __rtentry2.o(.ARM.Collect$$rtentry$$0000000D) refers to exit.o(.text) for exit
    __rtentry2.o(.ARM.exidx) refers to __rtentry2.o(.ARM.Collect$$rtentry$$00000001) for .ARM.Collect$$rtentry$$00000001
    __rtentry2.o(.ARM.exidx) refers to __rtentry2.o(.ARM.Collect$$rtentry$$00000008) for .ARM.Collect$$rtentry$$00000008
    __rtentry2.o(.ARM.exidx) refers to __rtentry2.o(.ARM.Collect$$rtentry$$0000000A) for .ARM.Collect$$rtentry$$0000000A
    __rtentry2.o(.ARM.exidx) refers to __rtentry2.o(.ARM.Collect$$rtentry$$0000000B) for .ARM.Collect$$rtentry$$0000000B
    __rtentry2.o(.ARM.exidx) refers to __rtentry2.o(.ARM.Collect$$rtentry$$0000000D) for .ARM.Collect$$rtentry$$0000000D
    __rtentry4.o(.ARM.Collect$$rtentry$$00000004) refers to sys_stackheap_outer.o(.text) for __user_setup_stackheap
    __rtentry4.o(.ARM.exidx) refers to __rtentry4.o(.ARM.Collect$$rtentry$$00000004) for .ARM.Collect$$rtentry$$00000004
    aeabi_ldiv0_sigfpe.o(.text) refers to rt_div0.o(.text) for __rt_div0
    sys_stackheap_outer.o(.text) refers to libspace.o(.text) for __user_perproc_libspace
    sys_stackheap_outer.o(.text) refers to startup_stm32f427_437xx.o(.text) for __user_initial_stackheap
    rt_div0.o(.text) refers to defsig_fpe_outer.o(.text) for __rt_SIGFPE
    exit.o(.text) refers to rtexit.o(.ARM.Collect$$rtexit$$00000000) for __rt_exit
    libinit.o(.ARM.Collect$$libinit$$00000000) refers (Special) to libinit2.o(.ARM.Collect$$libinit$$0000002E) for __rt_lib_init_alloca_1
    libinit.o(.ARM.Collect$$libinit$$00000000) refers (Special) to libinit2.o(.ARM.Collect$$libinit$$0000002C) for __rt_lib_init_argv_1
    libinit.o(.ARM.Collect$$libinit$$00000000) refers (Special) to libinit2.o(.ARM.Collect$$libinit$$0000001B) for __rt_lib_init_atexit_1
    libinit.o(.ARM.Collect$$libinit$$00000000) refers (Special) to libinit2.o(.ARM.Collect$$libinit$$00000021) for __rt_lib_init_clock_1
    libinit.o(.ARM.Collect$$libinit$$00000000) refers (Special) to libinit2.o(.ARM.Collect$$libinit$$00000032) for __rt_lib_init_cpp_1
    libinit.o(.ARM.Collect$$libinit$$00000000) refers (Special) to libinit2.o(.ARM.Collect$$libinit$$00000030) for __rt_lib_init_exceptions_1
    libinit.o(.ARM.Collect$$libinit$$00000000) refers (Special) to libinit2.o(.ARM.Collect$$libinit$$00000001) for __rt_lib_init_fp_1
    libinit.o(.ARM.Collect$$libinit$$00000000) refers (Special) to libinit2.o(.ARM.Collect$$libinit$$0000001F) for __rt_lib_init_fp_trap_1
    libinit.o(.ARM.Collect$$libinit$$00000000) refers (Special) to libinit2.o(.ARM.Collect$$libinit$$00000023) for __rt_lib_init_getenv_1
    libinit.o(.ARM.Collect$$libinit$$00000000) refers (Special) to libinit2.o(.ARM.Collect$$libinit$$0000000A) for __rt_lib_init_heap_1
    libinit.o(.ARM.Collect$$libinit$$00000000) refers (Special) to libinit2.o(.ARM.Collect$$libinit$$00000011) for __rt_lib_init_lc_collate_1
    libinit.o(.ARM.Collect$$libinit$$00000000) refers (Special) to libinit2.o(.ARM.Collect$$libinit$$00000013) for __rt_lib_init_lc_ctype_1
    libinit.o(.ARM.Collect$$libinit$$00000000) refers (Special) to libinit2.o(.ARM.Collect$$libinit$$00000015) for __rt_lib_init_lc_monetary_1
    libinit.o(.ARM.Collect$$libinit$$00000000) refers (Special) to libinit2.o(.ARM.Collect$$libinit$$00000017) for __rt_lib_init_lc_numeric_1
    libinit.o(.ARM.Collect$$libinit$$00000000) refers (Special) to libinit2.o(.ARM.Collect$$libinit$$00000019) for __rt_lib_init_lc_time_1
    libinit.o(.ARM.Collect$$libinit$$00000000) refers (Special) to libinit2.o(.ARM.Collect$$libinit$$00000004) for __rt_lib_init_preinit_1
    libinit.o(.ARM.Collect$$libinit$$00000000) refers (Special) to libinit2.o(.ARM.Collect$$libinit$$0000000E) for __rt_lib_init_rand_1
    libinit.o(.ARM.Collect$$libinit$$00000000) refers (Special) to libinit2.o(.ARM.Collect$$libinit$$00000033) for __rt_lib_init_return
    libinit.o(.ARM.Collect$$libinit$$00000000) refers (Special) to libinit2.o(.ARM.Collect$$libinit$$0000001D) for __rt_lib_init_signal_1
    libinit.o(.ARM.Collect$$libinit$$00000000) refers (Special) to libinit2.o(.ARM.Collect$$libinit$$00000025) for __rt_lib_init_stdio_1
    libinit.o(.ARM.Collect$$libinit$$00000000) refers (Special) to libinit2.o(.ARM.Collect$$libinit$$0000000C) for __rt_lib_init_user_alloc_1
    libspace.o(.text) refers to libspace.o(.bss) for __libspace_start
    rtexit.o(.ARM.Collect$$rtexit$$00000000) refers (Special) to rtexit2.o(.ARM.Collect$$rtexit$$00000004) for __rt_exit_exit
    rtexit.o(.ARM.Collect$$rtexit$$00000000) refers (Special) to rtexit2.o(.ARM.Collect$$rtexit$$00000003) for __rt_exit_ls
    rtexit.o(.ARM.Collect$$rtexit$$00000000) refers (Special) to rtexit2.o(.ARM.Collect$$rtexit$$00000002) for __rt_exit_prels_1
    rtexit.o(.ARM.exidx) refers (Special) to rtexit2.o(.ARM.Collect$$rtexit$$00000004) for __rt_exit_exit
    rtexit.o(.ARM.exidx) refers (Special) to rtexit2.o(.ARM.Collect$$rtexit$$00000003) for __rt_exit_ls
    rtexit.o(.ARM.exidx) refers (Special) to rtexit2.o(.ARM.Collect$$rtexit$$00000002) for __rt_exit_prels_1
    rtexit.o(.ARM.exidx) refers to rtexit.o(.ARM.Collect$$rtexit$$00000000) for .ARM.Collect$$rtexit$$00000000
    defsig_fpe_outer.o(.text) refers to defsig_fpe_inner.o(.text) for __rt_SIGFPE_inner
    defsig_fpe_outer.o(.text) refers to defsig_exit.o(.text) for __sig_exit
    defsig_fpe_formal.o(.text) refers to rt_raise.o(.text) for __rt_raise
    libinit2.o(.ARM.Collect$$libinit$$00000001) refers to fpinit.o(x$fpl$fpinit) for _fp_init
    libinit2.o(.ARM.Collect$$libinit$$00000010) refers to libinit2.o(.ARM.Collect$$libinit$$0000000F) for .ARM.Collect$$libinit$$0000000F
    libinit2.o(.ARM.Collect$$libinit$$00000012) refers to libinit2.o(.ARM.Collect$$libinit$$0000000F) for .ARM.Collect$$libinit$$0000000F
    libinit2.o(.ARM.Collect$$libinit$$00000014) refers to libinit2.o(.ARM.Collect$$libinit$$0000000F) for .ARM.Collect$$libinit$$0000000F
    libinit2.o(.ARM.Collect$$libinit$$00000016) refers to libinit2.o(.ARM.Collect$$libinit$$0000000F) for .ARM.Collect$$libinit$$0000000F
    libinit2.o(.ARM.Collect$$libinit$$00000018) refers to libinit2.o(.ARM.Collect$$libinit$$0000000F) for .ARM.Collect$$libinit$$0000000F
    libinit2.o(.ARM.Collect$$libinit$$00000026) refers to argv_veneer.o(.emb_text) for __ARM_argv_veneer
    libinit2.o(.ARM.Collect$$libinit$$00000027) refers to argv_veneer.o(.emb_text) for __ARM_argv_veneer
    rtexit2.o(.ARM.Collect$$rtexit$$00000003) refers to libshutdown.o(.ARM.Collect$$libshutdown$$00000000) for __rt_lib_shutdown
    rtexit2.o(.ARM.Collect$$rtexit$$00000004) refers to usart.o(i._sys_exit) for _sys_exit
    rtexit2.o(.ARM.exidx) refers to rtexit2.o(.ARM.Collect$$rtexit$$00000001) for .ARM.Collect$$rtexit$$00000001
    rtexit2.o(.ARM.exidx) refers to rtexit2.o(.ARM.Collect$$rtexit$$00000003) for .ARM.Collect$$rtexit$$00000003
    rtexit2.o(.ARM.exidx) refers to rtexit2.o(.ARM.Collect$$rtexit$$00000004) for .ARM.Collect$$rtexit$$00000004
    rt_raise.o(.text) refers to __raise.o(.text) for __raise
    rt_raise.o(.text) refers to usart.o(i._sys_exit) for _sys_exit
    defsig_exit.o(.text) refers to usart.o(i._sys_exit) for _sys_exit
    defsig_fpe_inner.o(.text) refers to defsig_general.o(.text) for __default_signal_display
    argv_veneer.o(.emb_text) refers to no_argv.o(.text) for __ARM_get_argv
    __raise.o(.text) refers to defsig.o(CL$$defsig) for __default_signal_handler
    defsig_general.o(.text) refers to sys_wrch.o(.text) for _ttywrch
    _get_argv_nomalloc.o(.text) refers (Special) to hrguard.o(.text) for __heap_region$guard
    _get_argv_nomalloc.o(.text) refers to defsig_rtmem_outer.o(.text) for __rt_SIGRTMEM
    _get_argv_nomalloc.o(.text) refers to sys_command.o(.text) for _sys_command_string
    libshutdown.o(.ARM.Collect$$libshutdown$$00000000) refers (Special) to libshutdown2.o(.ARM.Collect$$libshutdown$$00000002) for __rt_lib_shutdown_cpp_1
    libshutdown.o(.ARM.Collect$$libshutdown$$00000000) refers (Special) to libshutdown2.o(.ARM.Collect$$libshutdown$$00000007) for __rt_lib_shutdown_fp_trap_1
    libshutdown.o(.ARM.Collect$$libshutdown$$00000000) refers (Special) to libshutdown2.o(.ARM.Collect$$libshutdown$$0000000F) for __rt_lib_shutdown_heap_1
    libshutdown.o(.ARM.Collect$$libshutdown$$00000000) refers (Special) to libshutdown2.o(.ARM.Collect$$libshutdown$$00000010) for __rt_lib_shutdown_return
    libshutdown.o(.ARM.Collect$$libshutdown$$00000000) refers (Special) to libshutdown2.o(.ARM.Collect$$libshutdown$$0000000A) for __rt_lib_shutdown_signal_1
    libshutdown.o(.ARM.Collect$$libshutdown$$00000000) refers (Special) to libshutdown2.o(.ARM.Collect$$libshutdown$$00000004) for __rt_lib_shutdown_stdio_1
    libshutdown.o(.ARM.Collect$$libshutdown$$00000000) refers (Special) to libshutdown2.o(.ARM.Collect$$libshutdown$$0000000C) for __rt_lib_shutdown_user_alloc_1
    sys_wrch.o(.text) refers (Special) to use_no_semi.o(.text) for __I$use$semihosting
    sys_wrch.o(.text) refers (Special) to indicate_semi.o(.text) for __semihosting_library_function
    sys_command.o(.text) refers (Special) to use_no_semi.o(.text) for __I$use$semihosting
    sys_command.o(.text) refers (Special) to indicate_semi.o(.text) for __semihosting_library_function
    defsig_rtmem_outer.o(.text) refers to defsig_rtmem_inner.o(.text) for __rt_SIGRTMEM_inner
    defsig_rtmem_outer.o(.text) refers to defsig_exit.o(.text) for __sig_exit
    defsig_rtmem_formal.o(.text) refers to rt_raise.o(.text) for __rt_raise
    defsig.o(CL$$defsig) refers to defsig_fpe_inner.o(.text) for __rt_SIGFPE_inner
    defsig.o(CL$$defsig) refers to defsig_rtmem_inner.o(.text) for __rt_SIGRTMEM_inner
    defsig_abrt_inner.o(.text) refers to defsig_general.o(.text) for __default_signal_display
    defsig_rtred_inner.o(.text) refers to defsig_general.o(.text) for __default_signal_display
    defsig_rtmem_inner.o(.text) refers to defsig_general.o(.text) for __default_signal_display
    defsig_stak_inner.o(.text) refers to defsig_general.o(.text) for __default_signal_display
    defsig_pvfn_inner.o(.text) refers to defsig_general.o(.text) for __default_signal_display
    defsig_cppl_inner.o(.text) refers to defsig_general.o(.text) for __default_signal_display
    defsig_segv_inner.o(.text) refers to defsig_general.o(.text) for __default_signal_display
    defsig_other.o(.text) refers to defsig_general.o(.text) for __default_signal_display


==============================================================================

Removing Unused input sections from the image.

    Removing misc.o(.rev16_text), (4 bytes).
    Removing misc.o(.revsh_text), (4 bytes).
    Removing misc.o(i.NVIC_SetVectorTable), (20 bytes).
    Removing misc.o(i.NVIC_SystemLPConfig), (32 bytes).
    Removing stm32f4xx_can.o(.rev16_text), (4 bytes).
    Removing stm32f4xx_can.o(.revsh_text), (4 bytes).
    Removing stm32f4xx_can.o(i.CAN_CancelTransmit), (48 bytes).
    Removing stm32f4xx_can.o(i.CAN_ClearFlag), (56 bytes).
    Removing stm32f4xx_can.o(i.CAN_DBGFreeze), (22 bytes).
    Removing stm32f4xx_can.o(i.CAN_FIFORelease), (22 bytes).
    Removing stm32f4xx_can.o(i.CAN_GetFlagStatus), (120 bytes).
    Removing stm32f4xx_can.o(i.CAN_GetLSBTransmitErrorCounter), (12 bytes).
    Removing stm32f4xx_can.o(i.CAN_GetLastErrorCode), (12 bytes).
    Removing stm32f4xx_can.o(i.CAN_GetReceiveErrorCounter), (10 bytes).
    Removing stm32f4xx_can.o(i.CAN_MessagePending), (30 bytes).
    Removing stm32f4xx_can.o(i.CAN_OperatingModeRequest), (162 bytes).
    Removing stm32f4xx_can.o(i.CAN_SlaveStartBank), (52 bytes).
    Removing stm32f4xx_can.o(i.CAN_Sleep), (30 bytes).
    Removing stm32f4xx_can.o(i.CAN_TTComModeCmd), (118 bytes).
    Removing stm32f4xx_can.o(i.CAN_TransmitStatus), (160 bytes).
    Removing stm32f4xx_can.o(i.CAN_WakeUp), (48 bytes).
    Removing stm32f4xx_dma.o(.rev16_text), (4 bytes).
    Removing stm32f4xx_dma.o(.revsh_text), (4 bytes).
    Removing stm32f4xx_dma.o(i.DMA_FlowControllerConfig), (22 bytes).
    Removing stm32f4xx_dma.o(i.DMA_GetCmdStatus), (20 bytes).
    Removing stm32f4xx_dma.o(i.DMA_GetFIFOStatus), (12 bytes).
    Removing stm32f4xx_dma.o(i.DMA_GetFlagStatus), (68 bytes).
    Removing stm32f4xx_dma.o(i.DMA_MemoryTargetConfig), (10 bytes).
    Removing stm32f4xx_dma.o(i.DMA_PeriphIncOffsetSizeConfig), (22 bytes).
    Removing stm32f4xx_dma.o(i.DMA_StructInit), (34 bytes).
    Removing stm32f4xx_exti.o(.rev16_text), (4 bytes).
    Removing stm32f4xx_exti.o(.revsh_text), (4 bytes).
    Removing stm32f4xx_exti.o(i.EXTI_ClearFlag), (12 bytes).
    Removing stm32f4xx_exti.o(i.EXTI_DeInit), (36 bytes).
    Removing stm32f4xx_exti.o(i.EXTI_GenerateSWInterrupt), (16 bytes).
    Removing stm32f4xx_exti.o(i.EXTI_GetFlagStatus), (24 bytes).
    Removing stm32f4xx_exti.o(i.EXTI_StructInit), (16 bytes).
    Removing stm32f4xx_gpio.o(.rev16_text), (4 bytes).
    Removing stm32f4xx_gpio.o(.revsh_text), (4 bytes).
    Removing stm32f4xx_gpio.o(i.GPIO_DeInit), (312 bytes).
    Removing stm32f4xx_gpio.o(i.GPIO_PinLockConfig), (34 bytes).
    Removing stm32f4xx_gpio.o(i.GPIO_ReadInputData), (8 bytes).
    Removing stm32f4xx_gpio.o(i.GPIO_ReadInputDataBit), (18 bytes).
    Removing stm32f4xx_gpio.o(i.GPIO_ReadOutputData), (8 bytes).
    Removing stm32f4xx_gpio.o(i.GPIO_ReadOutputDataBit), (18 bytes).
    Removing stm32f4xx_gpio.o(i.GPIO_StructInit), (18 bytes).
    Removing stm32f4xx_gpio.o(i.GPIO_Write), (4 bytes).
    Removing stm32f4xx_gpio.o(i.GPIO_WriteBit), (10 bytes).
    Removing stm32f4xx_rcc.o(.rev16_text), (4 bytes).
    Removing stm32f4xx_rcc.o(.revsh_text), (4 bytes).
    Removing stm32f4xx_rcc.o(i.RCC_AHB1PeriphClockLPModeCmd), (32 bytes).
    Removing stm32f4xx_rcc.o(i.RCC_AHB1PeriphResetCmd), (32 bytes).
    Removing stm32f4xx_rcc.o(i.RCC_AHB2PeriphClockCmd), (32 bytes).
    Removing stm32f4xx_rcc.o(i.RCC_AHB2PeriphClockLPModeCmd), (32 bytes).
    Removing stm32f4xx_rcc.o(i.RCC_AHB2PeriphResetCmd), (32 bytes).
    Removing stm32f4xx_rcc.o(i.RCC_AHB3PeriphClockCmd), (32 bytes).
    Removing stm32f4xx_rcc.o(i.RCC_AHB3PeriphClockLPModeCmd), (32 bytes).
    Removing stm32f4xx_rcc.o(i.RCC_AHB3PeriphResetCmd), (32 bytes).
    Removing stm32f4xx_rcc.o(i.RCC_APB1PeriphClockLPModeCmd), (32 bytes).
    Removing stm32f4xx_rcc.o(i.RCC_APB2PeriphClockLPModeCmd), (32 bytes).
    Removing stm32f4xx_rcc.o(i.RCC_AdjustHSICalibrationValue), (24 bytes).
    Removing stm32f4xx_rcc.o(i.RCC_BackupResetCmd), (12 bytes).
    Removing stm32f4xx_rcc.o(i.RCC_ClearFlag), (20 bytes).
    Removing stm32f4xx_rcc.o(i.RCC_ClearITPendingBit), (12 bytes).
    Removing stm32f4xx_rcc.o(i.RCC_ClockSecuritySystemCmd), (12 bytes).
    Removing stm32f4xx_rcc.o(i.RCC_DeInit), (100 bytes).
    Removing stm32f4xx_rcc.o(i.RCC_GetFlagStatus), (64 bytes).
    Removing stm32f4xx_rcc.o(i.RCC_GetITStatus), (24 bytes).
    Removing stm32f4xx_rcc.o(i.RCC_GetSYSCLKSource), (16 bytes).
    Removing stm32f4xx_rcc.o(i.RCC_HCLKConfig), (24 bytes).
    Removing stm32f4xx_rcc.o(i.RCC_HSEConfig), (16 bytes).
    Removing stm32f4xx_rcc.o(i.RCC_HSICmd), (12 bytes).
    Removing stm32f4xx_rcc.o(i.RCC_I2SCLKConfig), (12 bytes).
    Removing stm32f4xx_rcc.o(i.RCC_ITConfig), (32 bytes).
    Removing stm32f4xx_rcc.o(i.RCC_LSEConfig), (44 bytes).
    Removing stm32f4xx_rcc.o(i.RCC_LSEModeConfig), (36 bytes).
    Removing stm32f4xx_rcc.o(i.RCC_LSICmd), (12 bytes).
    Removing stm32f4xx_rcc.o(i.RCC_LTDCCLKDivConfig), (24 bytes).
    Removing stm32f4xx_rcc.o(i.RCC_MCO1Config), (28 bytes).
    Removing stm32f4xx_rcc.o(i.RCC_MCO2Config), (28 bytes).
    Removing stm32f4xx_rcc.o(i.RCC_PCLK1Config), (24 bytes).
    Removing stm32f4xx_rcc.o(i.RCC_PCLK2Config), (24 bytes).
    Removing stm32f4xx_rcc.o(i.RCC_PLLCmd), (12 bytes).
    Removing stm32f4xx_rcc.o(i.RCC_PLLConfig), (36 bytes).
    Removing stm32f4xx_rcc.o(i.RCC_PLLI2SCmd), (12 bytes).
    Removing stm32f4xx_rcc.o(i.RCC_PLLI2SConfig), (24 bytes).
    Removing stm32f4xx_rcc.o(i.RCC_PLLSAICmd), (12 bytes).
    Removing stm32f4xx_rcc.o(i.RCC_PLLSAIConfig), (24 bytes).
    Removing stm32f4xx_rcc.o(i.RCC_RTCCLKCmd), (12 bytes).
    Removing stm32f4xx_rcc.o(i.RCC_RTCCLKConfig), (60 bytes).
    Removing stm32f4xx_rcc.o(i.RCC_SAIBlockACLKConfig), (24 bytes).
    Removing stm32f4xx_rcc.o(i.RCC_SAIBlockBCLKConfig), (24 bytes).
    Removing stm32f4xx_rcc.o(i.RCC_SAIPLLI2SClkDivConfig), (28 bytes).
    Removing stm32f4xx_rcc.o(i.RCC_SAIPLLSAIClkDivConfig), (28 bytes).
    Removing stm32f4xx_rcc.o(i.RCC_SYSCLKConfig), (24 bytes).
    Removing stm32f4xx_rcc.o(i.RCC_TIMCLKPresConfig), (12 bytes).
    Removing stm32f4xx_rcc.o(i.RCC_WaitForHSEStartUp), (56 bytes).
    Removing stm32f4xx_syscfg.o(.rev16_text), (4 bytes).
    Removing stm32f4xx_syscfg.o(.revsh_text), (4 bytes).
    Removing stm32f4xx_syscfg.o(i.SYSCFG_CompensationCellCmd), (12 bytes).
    Removing stm32f4xx_syscfg.o(i.SYSCFG_DeInit), (22 bytes).
    Removing stm32f4xx_syscfg.o(i.SYSCFG_ETH_MediaInterfaceConfig), (12 bytes).
    Removing stm32f4xx_syscfg.o(i.SYSCFG_GetCompensationCellStatus), (24 bytes).
    Removing stm32f4xx_syscfg.o(i.SYSCFG_MemoryRemapConfig), (12 bytes).
    Removing stm32f4xx_syscfg.o(i.SYSCFG_MemorySwappingBank), (12 bytes).
    Removing stm32f4xx_tim.o(.rev16_text), (4 bytes).
    Removing stm32f4xx_tim.o(.revsh_text), (4 bytes).
    Removing stm32f4xx_tim.o(i.TI1_Config), (58 bytes).
    Removing stm32f4xx_tim.o(i.TI2_Config), (80 bytes).
    Removing stm32f4xx_tim.o(i.TI3_Config), (72 bytes).
    Removing stm32f4xx_tim.o(i.TI4_Config), (80 bytes).
    Removing stm32f4xx_tim.o(i.TIM_BDTRConfig), (32 bytes).
    Removing stm32f4xx_tim.o(i.TIM_BDTRStructInit), (18 bytes).
    Removing stm32f4xx_tim.o(i.TIM_CCPreloadControl), (24 bytes).
    Removing stm32f4xx_tim.o(i.TIM_CCxCmd), (30 bytes).
    Removing stm32f4xx_tim.o(i.TIM_CCxNCmd), (30 bytes).
    Removing stm32f4xx_tim.o(i.TIM_ClearFlag), (6 bytes).
    Removing stm32f4xx_tim.o(i.TIM_ClearOC1Ref), (18 bytes).
    Removing stm32f4xx_tim.o(i.TIM_ClearOC2Ref), (24 bytes).
    Removing stm32f4xx_tim.o(i.TIM_ClearOC3Ref), (18 bytes).
    Removing stm32f4xx_tim.o(i.TIM_ClearOC4Ref), (24 bytes).
    Removing stm32f4xx_tim.o(i.TIM_CounterModeConfig), (18 bytes).
    Removing stm32f4xx_tim.o(i.TIM_CtrlPWMOutputs), (30 bytes).
    Removing stm32f4xx_tim.o(i.TIM_DMACmd), (18 bytes).
    Removing stm32f4xx_tim.o(i.TIM_DMAConfig), (10 bytes).
    Removing stm32f4xx_tim.o(i.TIM_DeInit), (400 bytes).
    Removing stm32f4xx_tim.o(i.TIM_ETRClockMode1Config), (54 bytes).
    Removing stm32f4xx_tim.o(i.TIM_ETRClockMode2Config), (32 bytes).
    Removing stm32f4xx_tim.o(i.TIM_ETRConfig), (28 bytes).
    Removing stm32f4xx_tim.o(i.TIM_EncoderInterfaceConfig), (66 bytes).
    Removing stm32f4xx_tim.o(i.TIM_ForcedOC1Config), (18 bytes).
    Removing stm32f4xx_tim.o(i.TIM_ForcedOC2Config), (26 bytes).
    Removing stm32f4xx_tim.o(i.TIM_ForcedOC3Config), (18 bytes).
    Removing stm32f4xx_tim.o(i.TIM_ForcedOC4Config), (26 bytes).
    Removing stm32f4xx_tim.o(i.TIM_GenerateEvent), (4 bytes).
    Removing stm32f4xx_tim.o(i.TIM_GetCapture1), (6 bytes).
    Removing stm32f4xx_tim.o(i.TIM_GetCapture2), (6 bytes).
    Removing stm32f4xx_tim.o(i.TIM_GetCapture3), (6 bytes).
    Removing stm32f4xx_tim.o(i.TIM_GetCapture4), (6 bytes).
    Removing stm32f4xx_tim.o(i.TIM_GetCounter), (6 bytes).
    Removing stm32f4xx_tim.o(i.TIM_GetFlagStatus), (18 bytes).
    Removing stm32f4xx_tim.o(i.TIM_GetPrescaler), (6 bytes).
    Removing stm32f4xx_tim.o(i.TIM_ICInit), (110 bytes).
    Removing stm32f4xx_tim.o(i.TIM_ICStructInit), (18 bytes).
    Removing stm32f4xx_tim.o(i.TIM_ITRxExternalClockConfig), (24 bytes).
    Removing stm32f4xx_tim.o(i.TIM_InternalClockConfig), (12 bytes).
    Removing stm32f4xx_tim.o(i.TIM_OC1FastConfig), (18 bytes).
    Removing stm32f4xx_tim.o(i.TIM_OC1NPolarityConfig), (18 bytes).
    Removing stm32f4xx_tim.o(i.TIM_OC1PolarityConfig), (18 bytes).
    Removing stm32f4xx_tim.o(i.TIM_OC2FastConfig), (26 bytes).
    Removing stm32f4xx_tim.o(i.TIM_OC2Init), (164 bytes).
    Removing stm32f4xx_tim.o(i.TIM_OC2NPolarityConfig), (26 bytes).
    Removing stm32f4xx_tim.o(i.TIM_OC2PolarityConfig), (26 bytes).
    Removing stm32f4xx_tim.o(i.TIM_OC2PreloadConfig), (26 bytes).
    Removing stm32f4xx_tim.o(i.TIM_OC3FastConfig), (18 bytes).
    Removing stm32f4xx_tim.o(i.TIM_OC3Init), (160 bytes).
    Removing stm32f4xx_tim.o(i.TIM_OC3NPolarityConfig), (26 bytes).
    Removing stm32f4xx_tim.o(i.TIM_OC3PolarityConfig), (26 bytes).
    Removing stm32f4xx_tim.o(i.TIM_OC3PreloadConfig), (18 bytes).
    Removing stm32f4xx_tim.o(i.TIM_OC4FastConfig), (26 bytes).
    Removing stm32f4xx_tim.o(i.TIM_OC4PolarityConfig), (26 bytes).
    Removing stm32f4xx_tim.o(i.TIM_OCStructInit), (20 bytes).
    Removing stm32f4xx_tim.o(i.TIM_PWMIConfig), (124 bytes).
    Removing stm32f4xx_tim.o(i.TIM_PrescalerConfig), (6 bytes).
    Removing stm32f4xx_tim.o(i.TIM_RemapConfig), (6 bytes).
    Removing stm32f4xx_tim.o(i.TIM_SelectCCDMA), (24 bytes).
    Removing stm32f4xx_tim.o(i.TIM_SelectCOM), (24 bytes).
    Removing stm32f4xx_tim.o(i.TIM_SelectHallSensor), (24 bytes).
    Removing stm32f4xx_tim.o(i.TIM_SelectInputTrigger), (18 bytes).
    Removing stm32f4xx_tim.o(i.TIM_SelectMasterSlaveMode), (18 bytes).
    Removing stm32f4xx_tim.o(i.TIM_SelectOCxM), (86 bytes).
    Removing stm32f4xx_tim.o(i.TIM_SelectOnePulseMode), (18 bytes).
    Removing stm32f4xx_tim.o(i.TIM_SelectOutputTrigger), (18 bytes).
    Removing stm32f4xx_tim.o(i.TIM_SelectSlaveMode), (18 bytes).
    Removing stm32f4xx_tim.o(i.TIM_SetAutoreload), (4 bytes).
    Removing stm32f4xx_tim.o(i.TIM_SetClockDivision), (18 bytes).
    Removing stm32f4xx_tim.o(i.TIM_SetCompare2), (4 bytes).
    Removing stm32f4xx_tim.o(i.TIM_SetCompare3), (4 bytes).
    Removing stm32f4xx_tim.o(i.TIM_SetCounter), (4 bytes).
    Removing stm32f4xx_tim.o(i.TIM_SetIC1Prescaler), (18 bytes).
    Removing stm32f4xx_tim.o(i.TIM_SetIC2Prescaler), (26 bytes).
    Removing stm32f4xx_tim.o(i.TIM_SetIC3Prescaler), (18 bytes).
    Removing stm32f4xx_tim.o(i.TIM_SetIC4Prescaler), (26 bytes).
    Removing stm32f4xx_tim.o(i.TIM_TIxExternalClockConfig), (62 bytes).
    Removing stm32f4xx_tim.o(i.TIM_TimeBaseStructInit), (18 bytes).
    Removing stm32f4xx_tim.o(i.TIM_UpdateDisableConfig), (24 bytes).
    Removing stm32f4xx_tim.o(i.TIM_UpdateRequestConfig), (24 bytes).
    Removing stm32f4xx_usart.o(.rev16_text), (4 bytes).
    Removing stm32f4xx_usart.o(.revsh_text), (4 bytes).
    Removing stm32f4xx_usart.o(i.USART_ClearITPendingBit), (30 bytes).
    Removing stm32f4xx_usart.o(i.USART_ClockInit), (32 bytes).
    Removing stm32f4xx_usart.o(i.USART_ClockStructInit), (12 bytes).
    Removing stm32f4xx_usart.o(i.USART_HalfDuplexCmd), (24 bytes).
    Removing stm32f4xx_usart.o(i.USART_IrDACmd), (24 bytes).
    Removing stm32f4xx_usart.o(i.USART_IrDAConfig), (18 bytes).
    Removing stm32f4xx_usart.o(i.USART_LINBreakDetectLengthConfig), (18 bytes).
    Removing stm32f4xx_usart.o(i.USART_LINCmd), (24 bytes).
    Removing stm32f4xx_usart.o(i.USART_OneBitMethodCmd), (24 bytes).
    Removing stm32f4xx_usart.o(i.USART_OverSampling8Cmd), (22 bytes).
    Removing stm32f4xx_usart.o(i.USART_ReceiverWakeUpCmd), (24 bytes).
    Removing stm32f4xx_usart.o(i.USART_SendBreak), (10 bytes).
    Removing stm32f4xx_usart.o(i.USART_SetAddress), (18 bytes).
    Removing stm32f4xx_usart.o(i.USART_SetGuardTime), (16 bytes).
    Removing stm32f4xx_usart.o(i.USART_SetPrescaler), (16 bytes).
    Removing stm32f4xx_usart.o(i.USART_SmartCardCmd), (24 bytes).
    Removing stm32f4xx_usart.o(i.USART_SmartCardNACKCmd), (24 bytes).
    Removing stm32f4xx_usart.o(i.USART_StructInit), (24 bytes).
    Removing stm32f4xx_usart.o(i.USART_WakeUpConfig), (18 bytes).
    Removing stm32f4xx_spi.o(.rev16_text), (4 bytes).
    Removing stm32f4xx_spi.o(.revsh_text), (4 bytes).
    Removing stm32f4xx_spi.o(i.I2S_Cmd), (24 bytes).
    Removing stm32f4xx_spi.o(i.I2S_FullDuplexConfig), (80 bytes).
    Removing stm32f4xx_spi.o(i.I2S_Init), (408 bytes).
    Removing stm32f4xx_spi.o(i.I2S_StructInit), (20 bytes).
    Removing stm32f4xx_spi.o(i.SPI_BiDirectionalLineConfig), (28 bytes).
    Removing stm32f4xx_spi.o(i.SPI_CalculateCRC), (24 bytes).
    Removing stm32f4xx_spi.o(i.SPI_DataSizeConfig), (18 bytes).
    Removing stm32f4xx_spi.o(i.SPI_GetCRC), (16 bytes).
    Removing stm32f4xx_spi.o(i.SPI_GetCRCPolynomial), (6 bytes).
    Removing stm32f4xx_spi.o(i.SPI_I2S_ClearFlag), (6 bytes).
    Removing stm32f4xx_spi.o(i.SPI_I2S_ClearITPendingBit), (20 bytes).
    Removing stm32f4xx_spi.o(i.SPI_I2S_DMACmd), (18 bytes).
    Removing stm32f4xx_spi.o(i.SPI_I2S_DeInit), (176 bytes).
    Removing stm32f4xx_spi.o(i.SPI_I2S_GetITStatus), (52 bytes).
    Removing stm32f4xx_spi.o(i.SPI_I2S_ITConfig), (32 bytes).
    Removing stm32f4xx_spi.o(i.SPI_NSSInternalSoftwareConfig), (30 bytes).
    Removing stm32f4xx_spi.o(i.SPI_SSOutputCmd), (24 bytes).
    Removing stm32f4xx_spi.o(i.SPI_StructInit), (24 bytes).
    Removing stm32f4xx_spi.o(i.SPI_TIModeCmd), (24 bytes).
    Removing stm32f4xx_spi.o(i.SPI_TransmitCRC), (10 bytes).
    Removing heap_4.o(.rev16_text), (4 bytes).
    Removing heap_4.o(.revsh_text), (4 bytes).
    Removing heap_4.o(i.vPortInitialiseBlocks), (2 bytes).
    Removing heap_4.o(i.xPortGetFreeHeapSize), (12 bytes).
    Removing heap_4.o(i.xPortGetMinimumEverFreeHeapSize), (12 bytes).
    Removing port.o(.rev16_text), (4 bytes).
    Removing port.o(.revsh_text), (4 bytes).
    Removing port.o(i.vPortEndScheduler), (96 bytes).
    Removing croutine.o(.rev16_text), (4 bytes).
    Removing croutine.o(.revsh_text), (4 bytes).
    Removing event_groups.o(.rev16_text), (4 bytes).
    Removing event_groups.o(.revsh_text), (4 bytes).
    Removing event_groups.o(i.prvTestWaitCondition), (30 bytes).
    Removing event_groups.o(i.uxEventGroupGetNumber), (14 bytes).
    Removing event_groups.o(i.vEventGroupClearBitsCallback), (16 bytes).
    Removing event_groups.o(i.vEventGroupDelete), (120 bytes).
    Removing event_groups.o(i.vEventGroupSetBitsCallback), (16 bytes).
    Removing event_groups.o(i.vEventGroupSetNumber), (4 bytes).
    Removing event_groups.o(i.xEventGroupClearBits), (120 bytes).
    Removing event_groups.o(i.xEventGroupCreate), (26 bytes).
    Removing event_groups.o(i.xEventGroupGetBitsFromISR), (44 bytes).
    Removing event_groups.o(i.xEventGroupSetBits), (236 bytes).
    Removing event_groups.o(i.xEventGroupSync), (284 bytes).
    Removing event_groups.o(i.xEventGroupWaitBits), (352 bytes).
    Removing list.o(.rev16_text), (4 bytes).
    Removing list.o(.revsh_text), (4 bytes).
    Removing queue.o(.rev16_text), (4 bytes).
    Removing queue.o(.revsh_text), (4 bytes).
    Removing queue.o(i.pcQueueGetName), (44 bytes).
    Removing queue.o(i.prvCopyDataFromQueue), (42 bytes).
    Removing queue.o(i.prvCopyDataToQueue), (126 bytes).
    Removing queue.o(i.prvGetDisinheritPriorityAfterTimeout), (20 bytes).
    Removing queue.o(i.prvInitialiseMutex), (30 bytes).
    Removing queue.o(i.prvInitialiseNewQueue), (42 bytes).
    Removing queue.o(i.prvIsQueueEmpty), (26 bytes).
    Removing queue.o(i.prvIsQueueFull), (30 bytes).
    Removing queue.o(i.prvUnlockQueue), (126 bytes).
    Removing queue.o(i.ucQueueGetQueueType), (8 bytes).
    Removing queue.o(i.uxQueueGetQueueNumber), (6 bytes).
    Removing queue.o(i.uxQueueMessagesWaiting), (72 bytes).
    Removing queue.o(i.uxQueueMessagesWaitingFromISR), (68 bytes).
    Removing queue.o(i.uxQueueSpacesAvailable), (80 bytes).
    Removing queue.o(i.vQueueAddToRegistry), (44 bytes).
    Removing queue.o(i.vQueueDelete), (76 bytes).
    Removing queue.o(i.vQueueSetQueueNumber), (4 bytes).
    Removing queue.o(i.vQueueUnregisterQueue), (48 bytes).
    Removing queue.o(i.xQueueCreateCountingSemaphore), (112 bytes).
    Removing queue.o(i.xQueueCreateMutex), (34 bytes).
    Removing queue.o(i.xQueueGenericCreate), (120 bytes).
    Removing queue.o(i.xQueueGenericReset), (180 bytes).
    Removing queue.o(i.xQueueGenericSend), (424 bytes).
    Removing queue.o(i.xQueueGenericSendFromISR), (260 bytes).
    Removing queue.o(i.xQueueGiveFromISR), (236 bytes).
    Removing queue.o(i.xQueueIsQueueEmptyFromISR), (76 bytes).
    Removing queue.o(i.xQueueIsQueueFullFromISR), (80 bytes).
    Removing queue.o(i.xQueuePeek), (376 bytes).
    Removing queue.o(i.xQueuePeekFromISR), (188 bytes).
    Removing queue.o(i.xQueueReceive), (372 bytes).
    Removing queue.o(i.xQueueReceiveFromISR), (224 bytes).
    Removing queue.o(i.xQueueSemaphoreTake), (440 bytes).
    Removing queue.o(.bss), (80 bytes).
    Removing tasks.o(.rev16_text), (4 bytes).
    Removing tasks.o(.revsh_text), (4 bytes).
    Removing tasks.o(i.eTaskGetState), (180 bytes).
    Removing tasks.o(i.pcTaskGetName), (80 bytes).
    Removing tasks.o(i.prvListTasksWithinSingleList), (106 bytes).
    Removing tasks.o(i.prvTaskCheckFreeStackSpace), (22 bytes).
    Removing tasks.o(i.prvTaskIsTaskSuspended), (120 bytes).
    Removing tasks.o(i.prvWriteNameToBuffer), (42 bytes).
    Removing tasks.o(i.pvTaskIncrementMutexHeldCount), (32 bytes).
    Removing tasks.o(i.uxTaskGetNumberOfTasks), (12 bytes).
    Removing tasks.o(i.uxTaskGetSystemState), (184 bytes).
    Removing tasks.o(i.uxTaskGetTaskNumber), (14 bytes).
    Removing tasks.o(i.uxTaskPriorityGet), (36 bytes).
    Removing tasks.o(i.uxTaskPriorityGetFromISR), (68 bytes).
    Removing tasks.o(i.uxTaskResetEventItemValue), (28 bytes).
    Removing tasks.o(i.vTaskDelayUntil), (224 bytes).
    Removing tasks.o(i.vTaskEndScheduler), (36 bytes).
    Removing tasks.o(i.vTaskGetInfo), (132 bytes).
    Removing tasks.o(i.vTaskGetRunTimeStats), (196 bytes).
    Removing tasks.o(i.vTaskInternalSetTimeOutState), (24 bytes).
    Removing tasks.o(i.vTaskList), (220 bytes).
    Removing tasks.o(i.vTaskMissedYield), (12 bytes).
    Removing tasks.o(i.vTaskPlaceOnEventList), (88 bytes).
    Removing tasks.o(i.vTaskPlaceOnUnorderedEventList), (128 bytes).
    Removing tasks.o(i.vTaskPriorityDisinheritAfterTimeout), (264 bytes).
    Removing tasks.o(i.vTaskPrioritySet), (308 bytes).
    Removing tasks.o(i.vTaskRemoveFromUnorderedEventList), (184 bytes).
    Removing tasks.o(i.vTaskResume), (176 bytes).
    Removing tasks.o(i.vTaskSetTaskNumber), (8 bytes).
    Removing tasks.o(i.vTaskSetTimeOutState), (88 bytes).
    Removing tasks.o(i.vTaskSuspend), (272 bytes).
    Removing tasks.o(i.xTaskCheckForTimeOut), (160 bytes).
    Removing tasks.o(i.xTaskGenericNotify), (308 bytes).
    Removing tasks.o(i.xTaskGenericNotifyFromISR), (368 bytes).
    Removing tasks.o(i.xTaskGetCurrentTaskHandle), (12 bytes).
    Removing tasks.o(i.xTaskGetTickCount), (12 bytes).
    Removing tasks.o(i.xTaskGetTickCountFromISR), (20 bytes).
    Removing tasks.o(i.xTaskNotifyStateClear), (52 bytes).
    Removing tasks.o(i.xTaskNotifyWait), (160 bytes).
    Removing tasks.o(i.xTaskPriorityDisinherit), (220 bytes).
    Removing tasks.o(i.xTaskPriorityInherit), (200 bytes).
    Removing tasks.o(i.xTaskRemoveFromEventList), (184 bytes).
    Removing tasks.o(i.xTaskResumeFromISR), (208 bytes).
    Removing timers.o(.rev16_text), (4 bytes).
    Removing timers.o(.revsh_text), (4 bytes).
    Removing delay.o(.rev16_text), (4 bytes).
    Removing delay.o(.revsh_text), (4 bytes).
    Removing delay.o(i.delay_xms), (24 bytes).
    Removing sys.o(.rev16_text), (4 bytes).
    Removing sys.o(.revsh_text), (4 bytes).
    Removing sys.o(.emb_text), (16 bytes).
    Removing main.o(.rev16_text), (4 bytes).
    Removing main.o(.revsh_text), (4 bytes).
    Removing stm32f4xx_it.o(.rev16_text), (4 bytes).
    Removing stm32f4xx_it.o(.revsh_text), (4 bytes).
    Removing system_stm32f4xx.o(.rev16_text), (4 bytes).
    Removing system_stm32f4xx.o(.revsh_text), (4 bytes).
    Removing system_stm32f4xx.o(i.SystemCoreClockUpdate), (192 bytes).
    Removing led.o(.rev16_text), (4 bytes).
    Removing led.o(.revsh_text), (4 bytes).
    Removing beep.o(.rev16_text), (4 bytes).
    Removing beep.o(.revsh_text), (4 bytes).
    Removing beep.o(i.Beep_Change_Music), (160 bytes).
    Removing beep.o(.data), (348 bytes).
    Removing laser.o(.rev16_text), (4 bytes).
    Removing laser.o(.revsh_text), (4 bytes).
    Removing spi.o(.rev16_text), (4 bytes).
    Removing spi.o(.revsh_text), (4 bytes).
    Removing tim2.o(.rev16_text), (4 bytes).
    Removing tim2.o(.revsh_text), (4 bytes).
    Removing tim2.o(i.TIM2_Init), (96 bytes).
    Removing app_task.o(.rev16_text), (4 bytes).
    Removing app_task.o(.revsh_text), (4 bytes).
    Removing usart.o(.rev16_text), (4 bytes).
    Removing usart.o(.revsh_text), (4 bytes).
    Removing usart.o(i.USART_InitConfig), (16 bytes).
    Removing usart.o(i.bit8TObit32), (32 bytes).
    Removing usart.o(i.floatTou8), (14 bytes).
    Removing ptz.o(.rev16_text), (4 bytes).
    Removing ptz.o(.revsh_text), (4 bytes).
    Removing can.o(.rev16_text), (4 bytes).
    Removing can.o(.revsh_text), (4 bytes).
    Removing pid.o(.rev16_text), (4 bytes).
    Removing pid.o(.revsh_text), (4 bytes).
    Removing imu.o(.rev16_text), (4 bytes).
    Removing imu.o(.revsh_text), (4 bytes).
    Removing dr16.o(.rev16_text), (4 bytes).
    Removing dr16.o(.revsh_text), (4 bytes).
    Removing shoot.o(.rev16_text), (4 bytes).
    Removing shoot.o(.revsh_text), (4 bytes).
    Removing severo.o(.rev16_text), (4 bytes).
    Removing severo.o(.revsh_text), (4 bytes).
    Removing general.o(.rev16_text), (4 bytes).
    Removing general.o(.revsh_text), (4 bytes).

385 unused section(s) (total 19144 bytes) removed from the image.

==============================================================================

Image Symbol Table

    Local Symbols

    Symbol Name                              Value     Ov Type        Size  Object(Section)

    ../clib/angel/boardlib.s                 0x00000000   Number         0  boardshut.o ABSOLUTE
    ../clib/angel/boardlib.s                 0x00000000   Number         0  boardinit3.o ABSOLUTE
    ../clib/angel/boardlib.s                 0x00000000   Number         0  boardinit2.o ABSOLUTE
    ../clib/angel/boardlib.s                 0x00000000   Number         0  boardinit1.o ABSOLUTE
    ../clib/angel/dczerorl2.s                0x00000000   Number         0  __dczerorl2.o ABSOLUTE
    ../clib/angel/handlers.s                 0x00000000   Number         0  __scatter_zi.o ABSOLUTE
    ../clib/angel/kernel.s                   0x00000000   Number         0  __rtentry4.o ABSOLUTE
    ../clib/angel/kernel.s                   0x00000000   Number         0  __rtentry2.o ABSOLUTE
    ../clib/angel/kernel.s                   0x00000000   Number         0  rtexit.o ABSOLUTE
    ../clib/angel/kernel.s                   0x00000000   Number         0  rtexit2.o ABSOLUTE
    ../clib/angel/kernel.s                   0x00000000   Number         0  __rtentry.o ABSOLUTE
    ../clib/angel/rt.s                       0x00000000   Number         0  aeabi_ldiv0_sigfpe.o ABSOLUTE
    ../clib/angel/rt.s                       0x00000000   Number         0  aeabi_ldiv0.o ABSOLUTE
    ../clib/angel/rt.s                       0x00000000   Number         0  rt_raise.o ABSOLUTE
    ../clib/angel/rt.s                       0x00000000   Number         0  rt_div0.o ABSOLUTE
    ../clib/angel/scatter.s                  0x00000000   Number         0  __scatter.o ABSOLUTE
    ../clib/angel/startup.s                  0x00000000   Number         0  __main.o ABSOLUTE
    ../clib/angel/sys.s                      0x00000000   Number         0  use_no_semi_2.o ABSOLUTE
    ../clib/angel/sys.s                      0x00000000   Number         0  libspace.o ABSOLUTE
    ../clib/angel/sys.s                      0x00000000   Number         0  indicate_semi.o ABSOLUTE
    ../clib/angel/sys.s                      0x00000000   Number         0  sys_stackheap_outer.o ABSOLUTE
    ../clib/angel/sys.s                      0x00000000   Number         0  use_no_semi.o ABSOLUTE
    ../clib/angel/sysapp.c                   0x00000000   Number         0  sys_wrch.o ABSOLUTE
    ../clib/angel/sysapp.c                   0x00000000   Number         0  sys_command.o ABSOLUTE
    ../clib/armsys.c                         0x00000000   Number         0  argv_veneer.o ABSOLUTE
    ../clib/armsys.c                         0x00000000   Number         0  _get_argv_nomalloc.o ABSOLUTE
    ../clib/armsys.c                         0x00000000   Number         0  no_argv.o ABSOLUTE
    ../clib/armsys.c                         0x00000000   Number         0  argv_veneer.o ABSOLUTE
    ../clib/heapalloc.c                      0x00000000   Number         0  hrguard.o ABSOLUTE
    ../clib/heapaux.c                        0x00000000   Number         0  heapauxi.o ABSOLUTE
    ../clib/libinit.s                        0x00000000   Number         0  libinit.o ABSOLUTE
    ../clib/libinit.s                        0x00000000   Number         0  libshutdown.o ABSOLUTE
    ../clib/libinit.s                        0x00000000   Number         0  libshutdown2.o ABSOLUTE
    ../clib/libinit.s                        0x00000000   Number         0  libinit2.o ABSOLUTE
    ../clib/longlong.s                       0x00000000   Number         0  lludivv7m.o ABSOLUTE
    ../clib/longlong.s                       0x00000000   Number         0  llsdiv.o ABSOLUTE
    ../clib/memcpset.s                       0x00000000   Number         0  rt_memclr_w.o ABSOLUTE
    ../clib/memcpset.s                       0x00000000   Number         0  aeabi_memset.o ABSOLUTE
    ../clib/memcpset.s                       0x00000000   Number         0  rt_memcpy_v6.o ABSOLUTE
    ../clib/memcpset.s                       0x00000000   Number         0  rt_memclr.o ABSOLUTE
    ../clib/memcpset.s                       0x00000000   Number         0  rt_memcpy_w.o ABSOLUTE
    ../clib/printf.c                         0x00000000   Number         0  _printf_char.o ABSOLUTE
    ../clib/printf.c                         0x00000000   Number         0  __printf_flags.o ABSOLUTE
    ../clib/printf.c                         0x00000000   Number         0  __printf_flags_ss_wp.o ABSOLUTE
    ../clib/printf.c                         0x00000000   Number         0  __printf_ss_wp.o ABSOLUTE
    ../clib/printf.c                         0x00000000   Number         0  __printf_flags_wp.o ABSOLUTE
    ../clib/printf.c                         0x00000000   Number         0  __printf_ss.o ABSOLUTE
    ../clib/printf.c                         0x00000000   Number         0  __printf_wp.o ABSOLUTE
    ../clib/printf.c                         0x00000000   Number         0  _printf_intcommon.o ABSOLUTE
    ../clib/printf.c                         0x00000000   Number         0  _printf_char_file.o ABSOLUTE
    ../clib/printf.c                         0x00000000   Number         0  _sputc.o ABSOLUTE
    ../clib/printf.c                         0x00000000   Number         0  _printf_char_common.o ABSOLUTE
    ../clib/printf.c                         0x00000000   Number         0  __printf_flags_ss.o ABSOLUTE
    ../clib/printf.c                         0x00000000   Number         0  __printf_nopercent.o ABSOLUTE
    ../clib/printf.c                         0x00000000   Number         0  __2printf.o ABSOLUTE
    ../clib/printf.c                         0x00000000   Number         0  __2sprintf.o ABSOLUTE
    ../clib/printf.c                         0x00000000   Number         0  noretval__2printf.o ABSOLUTE
    ../clib/printf.c                         0x00000000   Number         0  noretval__2sprintf.o ABSOLUTE
    ../clib/printf.c                         0x00000000   Number         0  __printf.o ABSOLUTE
    ../clib/printf.c                         0x00000000   Number         0  _printf_str.o ABSOLUTE
    ../clib/printf.c                         0x00000000   Number         0  _printf_dec.o ABSOLUTE
    ../clib/printf_percent.s                 0x00000000   Number         0  _printf_d.o ABSOLUTE
    ../clib/printf_percent.s                 0x00000000   Number         0  _printf_percent_end.o ABSOLUTE
    ../clib/printf_percent.s                 0x00000000   Number         0  _printf_c.o ABSOLUTE
    ../clib/printf_percent.s                 0x00000000   Number         0  _printf_percent.o ABSOLUTE
    ../clib/printf_percent.s                 0x00000000   Number         0  _printf_u.o ABSOLUTE
    ../clib/printf_percent.s                 0x00000000   Number         0  _printf_s.o ABSOLUTE
    ../clib/signal.c                         0x00000000   Number         0  __raise.o ABSOLUTE
    ../clib/signal.c                         0x00000000   Number         0  defsig_rtmem_formal.o ABSOLUTE
    ../clib/signal.c                         0x00000000   Number         0  defsig_pvfn_inner.o ABSOLUTE
    ../clib/signal.c                         0x00000000   Number         0  defsig_fpe_outer.o ABSOLUTE
    ../clib/signal.c                         0x00000000   Number         0  defsig_fpe_formal.o ABSOLUTE
    ../clib/signal.c                         0x00000000   Number         0  defsig_rtmem_inner.o ABSOLUTE
    ../clib/signal.c                         0x00000000   Number         0  defsig_cppl_inner.o ABSOLUTE
    ../clib/signal.c                         0x00000000   Number         0  defsig_other.o ABSOLUTE
    ../clib/signal.c                         0x00000000   Number         0  defsig_rtmem_outer.o ABSOLUTE
    ../clib/signal.c                         0x00000000   Number         0  defsig_general.o ABSOLUTE
    ../clib/signal.c                         0x00000000   Number         0  defsig_fpe_inner.o ABSOLUTE
    ../clib/signal.c                         0x00000000   Number         0  defsig_segv_inner.o ABSOLUTE
    ../clib/signal.c                         0x00000000   Number         0  defsig_exit.o ABSOLUTE
    ../clib/signal.c                         0x00000000   Number         0  defsig_abrt_inner.o ABSOLUTE
    ../clib/signal.c                         0x00000000   Number         0  defsig_rtred_inner.o ABSOLUTE
    ../clib/signal.c                         0x00000000   Number         0  defsig_stak_inner.o ABSOLUTE
    ../clib/signal.s                         0x00000000   Number         0  defsig.o ABSOLUTE
    ../clib/stdio.c                          0x00000000   Number         0  ferror_locked.o ABSOLUTE
    ../clib/stdio.c                          0x00000000   Number         0  ferror.o ABSOLUTE
    ../clib/stdlib.c                         0x00000000   Number         0  exit.o ABSOLUTE
    ../clib/string.c                         0x00000000   Number         0  strlen.o ABSOLUTE
    ../clib/string.c                         0x00000000   Number         0  strcpy.o ABSOLUTE
    ../fplib/d2f.s                           0x00000000   Number         0  d2f.o ABSOLUTE
    ../fplib/daddsub.s                       0x00000000   Number         0  daddsub_clz.o ABSOLUTE
    ../fplib/dcmpi.s                         0x00000000   Number         0  dcmpi.o ABSOLUTE
    ../fplib/deqf.s                          0x00000000   Number         0  deqf.o ABSOLUTE
    ../fplib/dflt.s                          0x00000000   Number         0  dflt_clz.o ABSOLUTE
    ../fplib/dleqf.s                         0x00000000   Number         0  dleqf.o ABSOLUTE
    ../fplib/dnaninf.s                       0x00000000   Number         0  dnaninf.o ABSOLUTE
    ../fplib/dretinf.s                       0x00000000   Number         0  dretinf.o ABSOLUTE
    ../fplib/drleqf.s                        0x00000000   Number         0  drleqf.o ABSOLUTE
    ../fplib/f2d.s                           0x00000000   Number         0  f2d.o ABSOLUTE
    ../fplib/ffltll.s                        0x00000000   Number         0  ffltll_clz.o ABSOLUTE
    ../fplib/fnaninf.s                       0x00000000   Number         0  fnaninf.o ABSOLUTE
    ../fplib/fpinit.s                        0x00000000   Number         0  fpinit.o ABSOLUTE
    ../fplib/fretinf.s                       0x00000000   Number         0  fretinf.o ABSOLUTE
    ../fplib/usenofp.s                       0x00000000   Number         0  usenofp.o ABSOLUTE
    ../mathlib/fabs.c                        0x00000000   Number         0  fabs.o ABSOLUTE
    ..\CORE\startup_stm32f427_437xx.s        0x00000000   Number         0  startup_stm32f427_437xx.o ABSOLUTE
    ..\FWLIB\src\misc.c                      0x00000000   Number         0  misc.o ABSOLUTE
    ..\FWLIB\src\stm32f4xx_can.c             0x00000000   Number         0  stm32f4xx_can.o ABSOLUTE
    ..\FWLIB\src\stm32f4xx_dma.c             0x00000000   Number         0  stm32f4xx_dma.o ABSOLUTE
    ..\FWLIB\src\stm32f4xx_exti.c            0x00000000   Number         0  stm32f4xx_exti.o ABSOLUTE
    ..\FWLIB\src\stm32f4xx_gpio.c            0x00000000   Number         0  stm32f4xx_gpio.o ABSOLUTE
    ..\FWLIB\src\stm32f4xx_rcc.c             0x00000000   Number         0  stm32f4xx_rcc.o ABSOLUTE
    ..\FWLIB\src\stm32f4xx_spi.c             0x00000000   Number         0  stm32f4xx_spi.o ABSOLUTE
    ..\FWLIB\src\stm32f4xx_syscfg.c          0x00000000   Number         0  stm32f4xx_syscfg.o ABSOLUTE
    ..\FWLIB\src\stm32f4xx_tim.c             0x00000000   Number         0  stm32f4xx_tim.o ABSOLUTE
    ..\FWLIB\src\stm32f4xx_usart.c           0x00000000   Number         0  stm32f4xx_usart.o ABSOLUTE
    ..\FreeRTOS\port\MemMang\heap_4.c        0x00000000   Number         0  heap_4.o ABSOLUTE
    ..\FreeRTOS\port\RVDS\ARM_CM4F\port.c    0x00000000   Number         0  port.o ABSOLUTE
    ..\FreeRTOS\src\croutine.c               0x00000000   Number         0  croutine.o ABSOLUTE
    ..\FreeRTOS\src\event_groups.c           0x00000000   Number         0  event_groups.o ABSOLUTE
    ..\FreeRTOS\src\list.c                   0x00000000   Number         0  list.o ABSOLUTE
    ..\FreeRTOS\src\queue.c                  0x00000000   Number         0  queue.o ABSOLUTE
    ..\FreeRTOS\src\tasks.c                  0x00000000   Number         0  tasks.o ABSOLUTE
    ..\FreeRTOS\src\timers.c                 0x00000000   Number         0  timers.o ABSOLUTE
    ..\HARDWORK\APP_task.c                   0x00000000   Number         0  app_task.o ABSOLUTE
    ..\HARDWORK\BEEP.c                       0x00000000   Number         0  beep.o ABSOLUTE
    ..\HARDWORK\CAN.c                        0x00000000   Number         0  can.o ABSOLUTE
    ..\HARDWORK\DR16.c                       0x00000000   Number         0  dr16.o ABSOLUTE
    ..\HARDWORK\GENERAL.c                    0x00000000   Number         0  general.o ABSOLUTE
    ..\HARDWORK\IMU.c                        0x00000000   Number         0  imu.o ABSOLUTE
    ..\HARDWORK\LED.c                        0x00000000   Number         0  led.o ABSOLUTE
    ..\HARDWORK\Laser.c                      0x00000000   Number         0  laser.o ABSOLUTE
    ..\HARDWORK\PID.c                        0x00000000   Number         0  pid.o ABSOLUTE
    ..\HARDWORK\PTZ.c                        0x00000000   Number         0  ptz.o ABSOLUTE
    ..\HARDWORK\SHOOT.c                      0x00000000   Number         0  shoot.o ABSOLUTE
    ..\HARDWORK\SPI.c                        0x00000000   Number         0  spi.o ABSOLUTE
    ..\HARDWORK\Severo.c                     0x00000000   Number         0  severo.o ABSOLUTE
    ..\HARDWORK\USART.c                      0x00000000   Number         0  usart.o ABSOLUTE
    ..\HARDWORK\tim2.c                       0x00000000   Number         0  tim2.o ABSOLUTE
    ..\SYSTEM\delay.c                        0x00000000   Number         0  delay.o ABSOLUTE
    ..\SYSTEM\sys.c                          0x00000000   Number         0  sys.o ABSOLUTE
    ..\\FWLIB\\src\\misc.c                   0x00000000   Number         0  misc.o ABSOLUTE
    ..\\FWLIB\\src\\stm32f4xx_can.c          0x00000000   Number         0  stm32f4xx_can.o ABSOLUTE
    ..\\FWLIB\\src\\stm32f4xx_dma.c          0x00000000   Number         0  stm32f4xx_dma.o ABSOLUTE
    ..\\FWLIB\\src\\stm32f4xx_exti.c         0x00000000   Number         0  stm32f4xx_exti.o ABSOLUTE
    ..\\FWLIB\\src\\stm32f4xx_gpio.c         0x00000000   Number         0  stm32f4xx_gpio.o ABSOLUTE
    ..\\FWLIB\\src\\stm32f4xx_rcc.c          0x00000000   Number         0  stm32f4xx_rcc.o ABSOLUTE
    ..\\FWLIB\\src\\stm32f4xx_spi.c          0x00000000   Number         0  stm32f4xx_spi.o ABSOLUTE
    ..\\FWLIB\\src\\stm32f4xx_syscfg.c       0x00000000   Number         0  stm32f4xx_syscfg.o ABSOLUTE
    ..\\FWLIB\\src\\stm32f4xx_tim.c          0x00000000   Number         0  stm32f4xx_tim.o ABSOLUTE
    ..\\FWLIB\\src\\stm32f4xx_usart.c        0x00000000   Number         0  stm32f4xx_usart.o ABSOLUTE
    ..\\FreeRTOS\\port\\MemMang\\heap_4.c    0x00000000   Number         0  heap_4.o ABSOLUTE
    ..\\FreeRTOS\\port\\RVDS\\ARM_CM4F\\port.c 0x00000000   Number         0  port.o ABSOLUTE
    ..\\FreeRTOS\\src\\croutine.c            0x00000000   Number         0  croutine.o ABSOLUTE
    ..\\FreeRTOS\\src\\event_groups.c        0x00000000   Number         0  event_groups.o ABSOLUTE
    ..\\FreeRTOS\\src\\list.c                0x00000000   Number         0  list.o ABSOLUTE
    ..\\FreeRTOS\\src\\queue.c               0x00000000   Number         0  queue.o ABSOLUTE
    ..\\FreeRTOS\\src\\tasks.c               0x00000000   Number         0  tasks.o ABSOLUTE
    ..\\FreeRTOS\\src\\timers.c              0x00000000   Number         0  timers.o ABSOLUTE
    ..\\HARDWORK\\APP_task.c                 0x00000000   Number         0  app_task.o ABSOLUTE
    ..\\HARDWORK\\BEEP.c                     0x00000000   Number         0  beep.o ABSOLUTE
    ..\\HARDWORK\\CAN.c                      0x00000000   Number         0  can.o ABSOLUTE
    ..\\HARDWORK\\DR16.c                     0x00000000   Number         0  dr16.o ABSOLUTE
    ..\\HARDWORK\\GENERAL.c                  0x00000000   Number         0  general.o ABSOLUTE
    ..\\HARDWORK\\IMU.c                      0x00000000   Number         0  imu.o ABSOLUTE
    ..\\HARDWORK\\LED.c                      0x00000000   Number         0  led.o ABSOLUTE
    ..\\HARDWORK\\Laser.c                    0x00000000   Number         0  laser.o ABSOLUTE
    ..\\HARDWORK\\PID.c                      0x00000000   Number         0  pid.o ABSOLUTE
    ..\\HARDWORK\\PTZ.c                      0x00000000   Number         0  ptz.o ABSOLUTE
    ..\\HARDWORK\\SHOOT.c                    0x00000000   Number         0  shoot.o ABSOLUTE
    ..\\HARDWORK\\SPI.c                      0x00000000   Number         0  spi.o ABSOLUTE
    ..\\HARDWORK\\Severo.c                   0x00000000   Number         0  severo.o ABSOLUTE
    ..\\HARDWORK\\USART.c                    0x00000000   Number         0  usart.o ABSOLUTE
    ..\\HARDWORK\\tim2.c                     0x00000000   Number         0  tim2.o ABSOLUTE
    ..\\SYSTEM\\delay.c                      0x00000000   Number         0  delay.o ABSOLUTE
    ..\\SYSTEM\\sys.c                        0x00000000   Number         0  sys.o ABSOLUTE
    dc.s                                     0x00000000   Number         0  dc.o ABSOLUTE
    main.c                                   0x00000000   Number         0  main.o ABSOLUTE
    main.c                                   0x00000000   Number         0  main.o ABSOLUTE
    stm32f4xx_it.c                           0x00000000   Number         0  stm32f4xx_it.o ABSOLUTE
    stm32f4xx_it.c                           0x00000000   Number         0  stm32f4xx_it.o ABSOLUTE
    system_stm32f4xx.c                       0x00000000   Number         0  system_stm32f4xx.o ABSOLUTE
    system_stm32f4xx.c                       0x00000000   Number         0  system_stm32f4xx.o ABSOLUTE
    RESET                                    0x08000000   Section      428  startup_stm32f427_437xx.o(RESET)
    !!!main                                  0x080001ac   Section        8  __main.o(!!!main)
    !!!scatter                               0x080001b4   Section       52  __scatter.o(!!!scatter)
    !!dczerorl2                              0x080001e8   Section       90  __dczerorl2.o(!!dczerorl2)
    !!handler_zi                             0x08000244   Section       28  __scatter_zi.o(!!handler_zi)
    .ARM.Collect$$_printf_percent$$00000000  0x08000260   Section        0  _printf_percent.o(.ARM.Collect$$_printf_percent$$00000000)
    .ARM.Collect$$_printf_percent$$00000009  0x08000260   Section        6  _printf_d.o(.ARM.Collect$$_printf_percent$$00000009)
    .ARM.Collect$$_printf_percent$$00000014  0x08000266   Section        6  _printf_s.o(.ARM.Collect$$_printf_percent$$00000014)
    .ARM.Collect$$_printf_percent$$00000017  0x0800026c   Section        4  _printf_percent_end.o(.ARM.Collect$$_printf_percent$$00000017)
    .ARM.Collect$$libinit$$00000000          0x08000270   Section        2  libinit.o(.ARM.Collect$$libinit$$00000000)
    .ARM.Collect$$libinit$$00000001          0x08000272   Section        4  libinit2.o(.ARM.Collect$$libinit$$00000001)
    .ARM.Collect$$libinit$$00000004          0x08000276   Section        0  libinit2.o(.ARM.Collect$$libinit$$00000004)
    .ARM.Collect$$libinit$$0000000A          0x08000276   Section        0  libinit2.o(.ARM.Collect$$libinit$$0000000A)
    .ARM.Collect$$libinit$$0000000C          0x08000276   Section        0  libinit2.o(.ARM.Collect$$libinit$$0000000C)
    .ARM.Collect$$libinit$$0000000E          0x08000276   Section        0  libinit2.o(.ARM.Collect$$libinit$$0000000E)
    .ARM.Collect$$libinit$$00000011          0x08000276   Section        0  libinit2.o(.ARM.Collect$$libinit$$00000011)
    .ARM.Collect$$libinit$$00000013          0x08000276   Section        0  libinit2.o(.ARM.Collect$$libinit$$00000013)
    .ARM.Collect$$libinit$$00000015          0x08000276   Section        0  libinit2.o(.ARM.Collect$$libinit$$00000015)
    .ARM.Collect$$libinit$$00000017          0x08000276   Section        0  libinit2.o(.ARM.Collect$$libinit$$00000017)
    .ARM.Collect$$libinit$$00000019          0x08000276   Section        0  libinit2.o(.ARM.Collect$$libinit$$00000019)
    .ARM.Collect$$libinit$$0000001B          0x08000276   Section        0  libinit2.o(.ARM.Collect$$libinit$$0000001B)
    .ARM.Collect$$libinit$$0000001D          0x08000276   Section        0  libinit2.o(.ARM.Collect$$libinit$$0000001D)
    .ARM.Collect$$libinit$$0000001F          0x08000276   Section        0  libinit2.o(.ARM.Collect$$libinit$$0000001F)
    .ARM.Collect$$libinit$$00000021          0x08000276   Section        0  libinit2.o(.ARM.Collect$$libinit$$00000021)
    .ARM.Collect$$libinit$$00000023          0x08000276   Section        0  libinit2.o(.ARM.Collect$$libinit$$00000023)
    .ARM.Collect$$libinit$$00000025          0x08000276   Section        0  libinit2.o(.ARM.Collect$$libinit$$00000025)
    .ARM.Collect$$libinit$$0000002C          0x08000276   Section        0  libinit2.o(.ARM.Collect$$libinit$$0000002C)
    .ARM.Collect$$libinit$$0000002E          0x08000276   Section        0  libinit2.o(.ARM.Collect$$libinit$$0000002E)
    .ARM.Collect$$libinit$$00000030          0x08000276   Section        0  libinit2.o(.ARM.Collect$$libinit$$00000030)
    .ARM.Collect$$libinit$$00000032          0x08000276   Section        0  libinit2.o(.ARM.Collect$$libinit$$00000032)
    .ARM.Collect$$libinit$$00000033          0x08000276   Section        2  libinit2.o(.ARM.Collect$$libinit$$00000033)
    .ARM.Collect$$libshutdown$$00000000      0x08000278   Section        2  libshutdown.o(.ARM.Collect$$libshutdown$$00000000)
    .ARM.Collect$$libshutdown$$00000002      0x0800027a   Section        0  libshutdown2.o(.ARM.Collect$$libshutdown$$00000002)
    .ARM.Collect$$libshutdown$$00000004      0x0800027a   Section        0  libshutdown2.o(.ARM.Collect$$libshutdown$$00000004)
    .ARM.Collect$$libshutdown$$00000007      0x0800027a   Section        0  libshutdown2.o(.ARM.Collect$$libshutdown$$00000007)
    .ARM.Collect$$libshutdown$$0000000A      0x0800027a   Section        0  libshutdown2.o(.ARM.Collect$$libshutdown$$0000000A)
    .ARM.Collect$$libshutdown$$0000000C      0x0800027a   Section        0  libshutdown2.o(.ARM.Collect$$libshutdown$$0000000C)
    .ARM.Collect$$libshutdown$$0000000F      0x0800027a   Section        0  libshutdown2.o(.ARM.Collect$$libshutdown$$0000000F)
    .ARM.Collect$$libshutdown$$00000010      0x0800027a   Section        2  libshutdown2.o(.ARM.Collect$$libshutdown$$00000010)
    .ARM.Collect$$rtentry$$00000000          0x0800027c   Section        0  __rtentry.o(.ARM.Collect$$rtentry$$00000000)
    .ARM.Collect$$rtentry$$00000002          0x0800027c   Section        0  __rtentry2.o(.ARM.Collect$$rtentry$$00000002)
    .ARM.Collect$$rtentry$$00000004          0x0800027c   Section        6  __rtentry4.o(.ARM.Collect$$rtentry$$00000004)
    .ARM.Collect$$rtentry$$00000009          0x08000282   Section        0  __rtentry2.o(.ARM.Collect$$rtentry$$00000009)
    .ARM.Collect$$rtentry$$0000000A          0x08000282   Section        4  __rtentry2.o(.ARM.Collect$$rtentry$$0000000A)
    .ARM.Collect$$rtentry$$0000000C          0x08000286   Section        0  __rtentry2.o(.ARM.Collect$$rtentry$$0000000C)
    .ARM.Collect$$rtentry$$0000000D          0x08000286   Section        8  __rtentry2.o(.ARM.Collect$$rtentry$$0000000D)
    .ARM.Collect$$rtexit$$00000000           0x0800028e   Section        2  rtexit.o(.ARM.Collect$$rtexit$$00000000)
    .ARM.Collect$$rtexit$$00000002           0x08000290   Section        0  rtexit2.o(.ARM.Collect$$rtexit$$00000002)
    .ARM.Collect$$rtexit$$00000003           0x08000290   Section        4  rtexit2.o(.ARM.Collect$$rtexit$$00000003)
    .ARM.Collect$$rtexit$$00000004           0x08000294   Section        6  rtexit2.o(.ARM.Collect$$rtexit$$00000004)
    .emb_text                                0x0800029c   Section      182  port.o(.emb_text)
    $v0                                      0x0800029c   Number         0  port.o(.emb_text)
    .text                                    0x08000354   Section       64  startup_stm32f427_437xx.o(.text)
    $v0                                      0x08000354   Number         0  startup_stm32f427_437xx.o(.text)
    .text                                    0x08000394   Section        2  use_no_semi_2.o(.text)
    .text                                    0x08000396   Section       72  llsdiv.o(.text)
    .text                                    0x080003e0   Section        0  noretval__2printf.o(.text)
    .text                                    0x080003f8   Section        0  __printf.o(.text)
    .text                                    0x08000460   Section        0  _printf_str.o(.text)
    .text                                    0x080004b4   Section        0  _printf_dec.o(.text)
    .text                                    0x0800052c   Section      100  rt_memcpy_w.o(.text)
    .text                                    0x08000590   Section       16  aeabi_memset.o(.text)
    .text                                    0x080005a0   Section        0  heapauxi.o(.text)
    .text                                    0x080005a6   Section        2  use_no_semi.o(.text)
    .text                                    0x080005a8   Section      238  lludivv7m.o(.text)
    .text                                    0x08000696   Section        0  _printf_intcommon.o(.text)
    .text                                    0x08000748   Section        0  _printf_char_common.o(.text)
    _printf_input_char                       0x08000749   Thumb Code    10  _printf_char_common.o(.text)
    .text                                    0x08000778   Section        0  _printf_char.o(.text)
    .text                                    0x080007a4   Section        0  _printf_char_file.o(.text)
    .text                                    0x080007c8   Section       68  rt_memclr.o(.text)
    .text                                    0x0800080c   Section        0  ferror.o(.text)
    .text                                    0x08000814   Section       78  rt_memclr_w.o(.text)
    .text                                    0x08000862   Section       74  sys_stackheap_outer.o(.text)
    .text                                    0x080008ac   Section        0  exit.o(.text)
    .text                                    0x080008c0   Section        8  libspace.o(.text)
    i.BaseHardwork_Init                      0x080008c8   Section        0  main.o(i.BaseHardwork_Init)
    i.Beep_Init                              0x080008f4   Section        0  beep.o(i.Beep_Init)
    i.Beep_OFF                               0x08000998   Section        0  beep.o(i.Beep_OFF)
    i.Beep_ON                                0x080009a8   Section        0  beep.o(i.Beep_ON)
    i.BusFault_Handler                       0x080009b8   Section        0  stm32f4xx_it.o(i.BusFault_Handler)
    i.CAN1_Init                              0x080009bc   Section        0  can.o(i.CAN1_Init)
    i.CAN1_RX0_IRQHandler                    0x08000ae0   Section        0  can.o(i.CAN1_RX0_IRQHandler)
    i.CAN1_TX_Friction                       0x08000bc8   Section        0  can.o(i.CAN1_TX_Friction)
    i.CAN1_TX_IRQHandler                     0x08000c44   Section        0  can.o(i.CAN1_TX_IRQHandler)
    i.CAN1_TX_PTZ                            0x08000c68   Section        0  can.o(i.CAN1_TX_PTZ)
    i.CAN_ClearITPendingBit                  0x08000ce4   Section        0  stm32f4xx_can.o(i.CAN_ClearITPendingBit)
    i.CAN_DeInit                             0x08000d8c   Section        0  stm32f4xx_can.o(i.CAN_DeInit)
    i.CAN_FilterInit                         0x08000dc4   Section        0  stm32f4xx_can.o(i.CAN_FilterInit)
    i.CAN_GetITStatus                        0x08000ecc   Section        0  stm32f4xx_can.o(i.CAN_GetITStatus)
    i.CAN_ITConfig                           0x08000fec   Section        0  stm32f4xx_can.o(i.CAN_ITConfig)
    i.CAN_Init                               0x08000ffe   Section        0  stm32f4xx_can.o(i.CAN_Init)
    i.CAN_Receive                            0x08001112   Section        0  stm32f4xx_can.o(i.CAN_Receive)
    i.CAN_StructInit                         0x08001202   Section        0  stm32f4xx_can.o(i.CAN_StructInit)
    i.CAN_Transmit                           0x08001222   Section        0  stm32f4xx_can.o(i.CAN_Transmit)
    i.CheckITStatus                          0x08001348   Section        0  stm32f4xx_can.o(i.CheckITStatus)
    CheckITStatus                            0x08001349   Thumb Code    18  stm32f4xx_can.o(i.CheckITStatus)
    i.DMA1_Stream0_IRQHandler                0x0800135c   Section        0  usart.o(i.DMA1_Stream0_IRQHandler)
    i.DMA1_Stream3_IRQHandler                0x08001398   Section        0  usart.o(i.DMA1_Stream3_IRQHandler)
    i.DMA_ClearFlag                          0x080013c8   Section        0  stm32f4xx_dma.o(i.DMA_ClearFlag)
    i.DMA_ClearITPendingBit                  0x080013fc   Section        0  stm32f4xx_dma.o(i.DMA_ClearITPendingBit)
    i.DMA_Cmd                                0x08001430   Section        0  stm32f4xx_dma.o(i.DMA_Cmd)
    i.DMA_DeInit                             0x08001448   Section        0  stm32f4xx_dma.o(i.DMA_DeInit)
    i.DMA_DoubleBufferModeCmd                0x080015a0   Section        0  stm32f4xx_dma.o(i.DMA_DoubleBufferModeCmd)
    i.DMA_DoubleBufferModeConfig             0x080015b6   Section        0  stm32f4xx_dma.o(i.DMA_DoubleBufferModeConfig)
    i.DMA_GetCurrDataCounter                 0x080015ce   Section        0  stm32f4xx_dma.o(i.DMA_GetCurrDataCounter)
    i.DMA_GetCurrentMemoryTarget             0x080015d6   Section        0  stm32f4xx_dma.o(i.DMA_GetCurrentMemoryTarget)
    i.DMA_GetITStatus                        0x080015ec   Section        0  stm32f4xx_dma.o(i.DMA_GetITStatus)
    i.DMA_ITConfig                           0x08001650   Section        0  stm32f4xx_dma.o(i.DMA_ITConfig)
    i.DMA_Init                               0x0800168c   Section        0  stm32f4xx_dma.o(i.DMA_Init)
    i.DMA_SetCurrDataCounter                 0x080016e4   Section        0  stm32f4xx_dma.o(i.DMA_SetCurrDataCounter)
    i.DR16_InitConfig                        0x080016e8   Section        0  dr16.o(i.DR16_InitConfig)
    i.DebugMon_Handler                       0x080016fc   Section        0  stm32f4xx_it.o(i.DebugMon_Handler)
    i.EXTI9_5_IRQHandler                     0x08001700   Section        0  imu.o(i.EXTI9_5_IRQHandler)
    i.EXTI_ClearITPendingBit                 0x08001740   Section        0  stm32f4xx_exti.o(i.EXTI_ClearITPendingBit)
    i.EXTI_GetITStatus                       0x0800174c   Section        0  stm32f4xx_exti.o(i.EXTI_GetITStatus)
    i.EXTI_Init                              0x08001764   Section        0  stm32f4xx_exti.o(i.EXTI_Init)
    i.GPIO_Init                              0x080017f8   Section        0  stm32f4xx_gpio.o(i.GPIO_Init)
    i.GPIO_PinAFConfig                       0x08001888   Section        0  stm32f4xx_gpio.o(i.GPIO_PinAFConfig)
    i.GPIO_ResetBits                         0x080018ce   Section        0  stm32f4xx_gpio.o(i.GPIO_ResetBits)
    i.GPIO_SetBits                           0x080018d2   Section        0  stm32f4xx_gpio.o(i.GPIO_SetBits)
    i.GPIO_ToggleBits                        0x080018d6   Section        0  stm32f4xx_gpio.o(i.GPIO_ToggleBits)
    i.HardFault_Handler                      0x080018de   Section        0  stm32f4xx_it.o(i.HardFault_Handler)
    i.Heart_Task                             0x080018e4   Section        0  led.o(i.Heart_Task)
    i.IMU_Get_Data                           0x08001904   Section        0  imu.o(i.IMU_Get_Data)
    i.IMU_Get_Data_Task                      0x08001b08   Section        0  imu.o(i.IMU_Get_Data_Task)
    i.IMU_Init                               0x08001b24   Section        0  imu.o(i.IMU_Init)
    i.LED_Init                               0x08001b98   Section        0  led.o(i.LED_Init)
    i.Laser_InitConfig                       0x08001c14   Section        0  laser.o(i.Laser_InitConfig)
    i.MPU6500_Gyro_Cali                      0x08001c54   Section        0  imu.o(i.MPU6500_Gyro_Cali)
    i.MPU6500_Read_Reg                       0x08001d40   Section        0  imu.o(i.MPU6500_Read_Reg)
    i.MPU6500_Read_Regs                      0x08001d6c   Section        0  imu.o(i.MPU6500_Read_Regs)
    i.MPU6500_Write_Reg                      0x08001da4   Section        0  imu.o(i.MPU6500_Write_Reg)
    i.MPU_6500_Interrupt_InitConfig          0x08001dd0   Section        0  imu.o(i.MPU_6500_Interrupt_InitConfig)
    i.MemManage_Handler                      0x08001e54   Section        0  stm32f4xx_it.o(i.MemManage_Handler)
    i.MoCaLun_Close_3508                     0x08001e58   Section        0  shoot.o(i.MoCaLun_Close_3508)
    i.MoCaLun_Control_Task                   0x08001ec4   Section        0  shoot.o(i.MoCaLun_Control_Task)
    i.MoCaLun_Open_3508                      0x08001f4c   Section        0  shoot.o(i.MoCaLun_Open_3508)
    i.NMI_Handler                            0x08001fc4   Section        0  stm32f4xx_it.o(i.NMI_Handler)
    i.NUC_Decode_Task                        0x08001fc8   Section        0  usart.o(i.NUC_Decode_Task)
    i.NUC_Init                               0x08002158   Section        0  usart.o(i.NUC_Init)
    i.NVIC_Init                              0x08002344   Section        0  misc.o(i.NVIC_Init)
    i.NVIC_PriorityGroupConfig               0x080023bc   Section        0  misc.o(i.NVIC_PriorityGroupConfig)
    i.PID_Init                               0x080023d0   Section        0  pid.o(i.PID_Init)
    i.PTZ_Auto_No_Limit                      0x08002ef8   Section        0  ptz.o(i.PTZ_Auto_No_Limit)
    i.PTZ_Control_Hand                       0x08003068   Section        0  ptz.o(i.PTZ_Control_Hand)
    i.PTZ_Control_Task                       0x0800320c   Section        0  ptz.o(i.PTZ_Control_Task)
    i.PTZ_Init_PITCH                         0x08003298   Section        0  ptz.o(i.PTZ_Init_PITCH)
    i.PTZ_Init_Yaw                           0x08003358   Section        0  ptz.o(i.PTZ_Init_Yaw)
    i.P_Swing                                0x08003448   Section        0  ptz.o(i.P_Swing)
    i.Pid_Calc                               0x08003554   Section        0  pid.o(i.Pid_Calc)
    i.Position_Direction_Judge               0x08003854   Section        0  can.o(i.Position_Direction_Judge)
    i.Position_Direction_Judge_Pitch         0x080039d8   Section        0  can.o(i.Position_Direction_Judge_Pitch)
    i.RCC_AHB1PeriphClockCmd                 0x08003a5c   Section        0  stm32f4xx_rcc.o(i.RCC_AHB1PeriphClockCmd)
    i.RCC_APB1PeriphClockCmd                 0x08003a7c   Section        0  stm32f4xx_rcc.o(i.RCC_APB1PeriphClockCmd)
    i.RCC_APB1PeriphResetCmd                 0x08003a9c   Section        0  stm32f4xx_rcc.o(i.RCC_APB1PeriphResetCmd)
    i.RCC_APB2PeriphClockCmd                 0x08003abc   Section        0  stm32f4xx_rcc.o(i.RCC_APB2PeriphClockCmd)
    i.RCC_APB2PeriphResetCmd                 0x08003adc   Section        0  stm32f4xx_rcc.o(i.RCC_APB2PeriphResetCmd)
    i.RCC_GetClocksFreq                      0x08003afc   Section        0  stm32f4xx_rcc.o(i.RCC_GetClocksFreq)
    i.RC_Init                                0x08003be4   Section        0  dr16.o(i.RC_Init)
    i.SBUS_TO_RC                             0x08003d30   Section        0  dr16.o(i.SBUS_TO_RC)
    SBUS_TO_RC                               0x08003d31   Thumb Code   186  dr16.o(i.SBUS_TO_RC)
    i.SPI5_ReadWriteByte                     0x08003df0   Section        0  spi.o(i.SPI5_ReadWriteByte)
    i.SPI_Cmd                                0x08003e28   Section        0  stm32f4xx_spi.o(i.SPI_Cmd)
    i.SPI_GPIO_InitConfig                    0x08003e40   Section        0  spi.o(i.SPI_GPIO_InitConfig)
    i.SPI_I2S_GetFlagStatus                  0x08003f20   Section        0  stm32f4xx_spi.o(i.SPI_I2S_GetFlagStatus)
    i.SPI_I2S_ReceiveData                    0x08003f32   Section        0  stm32f4xx_spi.o(i.SPI_I2S_ReceiveData)
    i.SPI_I2S_SendData                       0x08003f38   Section        0  stm32f4xx_spi.o(i.SPI_I2S_SendData)
    i.SPI_Init                               0x08003f3c   Section        0  stm32f4xx_spi.o(i.SPI_Init)
    i.SYSCFG_EXTILineConfig                  0x08003f78   Section        0  stm32f4xx_syscfg.o(i.SYSCFG_EXTILineConfig)
    i.SetSysClock                            0x08003fb8   Section        0  system_stm32f4xx.o(i.SetSysClock)
    SetSysClock                              0x08003fb9   Thumb Code   272  system_stm32f4xx.o(i.SetSysClock)
    i.Severo_Init                            0x080040d8   Section        0  severo.o(i.Severo_Init)
    i.Shoot_Allow                            0x08004178   Section        0  severo.o(i.Shoot_Allow)
    i.Shoot_Forbid                           0x08004190   Section        0  severo.o(i.Shoot_Forbid)
    i.Shoot_Forbid1                          0x080041a8   Section        0  severo.o(i.Shoot_Forbid1)
    i.Shoot_Init                             0x080041c0   Section        0  shoot.o(i.Shoot_Init)
    i.SysTick_CLKSourceConfig                0x080041e4   Section        0  misc.o(i.SysTick_CLKSourceConfig)
    i.SysTick_Handler                        0x0800420c   Section        0  stm32f4xx_it.o(i.SysTick_Handler)
    i.SystemInit                             0x0800421c   Section        0  system_stm32f4xx.o(i.SystemInit)
    i.TIM2_IRQHandler                        0x08004284   Section        0  tim2.o(i.TIM2_IRQHandler)
    i.TIM7_IRQHandler                        0x080042a8   Section        0  general.o(i.TIM7_IRQHandler)
    i.TIM_ARRPreloadConfig                   0x08004390   Section        0  stm32f4xx_tim.o(i.TIM_ARRPreloadConfig)
    i.TIM_ClearITPendingBit                  0x080043a8   Section        0  stm32f4xx_tim.o(i.TIM_ClearITPendingBit)
    i.TIM_Cmd                                0x080043ae   Section        0  stm32f4xx_tim.o(i.TIM_Cmd)
    i.TIM_GetITStatus                        0x080043c6   Section        0  stm32f4xx_tim.o(i.TIM_GetITStatus)
    i.TIM_ITConfig                           0x080043e8   Section        0  stm32f4xx_tim.o(i.TIM_ITConfig)
    i.TIM_OC1Init                            0x080043fc   Section        0  stm32f4xx_tim.o(i.TIM_OC1Init)
    i.TIM_OC1PreloadConfig                   0x08004478   Section        0  stm32f4xx_tim.o(i.TIM_OC1PreloadConfig)
    i.TIM_OC4Init                            0x0800448c   Section        0  stm32f4xx_tim.o(i.TIM_OC4Init)
    i.TIM_OC4PreloadConfig                   0x08004504   Section        0  stm32f4xx_tim.o(i.TIM_OC4PreloadConfig)
    i.TIM_SetCompare1                        0x0800451e   Section        0  stm32f4xx_tim.o(i.TIM_SetCompare1)
    i.TIM_SetCompare4                        0x08004522   Section        0  stm32f4xx_tim.o(i.TIM_SetCompare4)
    i.TIM_TimeBaseInit                       0x08004528   Section        0  stm32f4xx_tim.o(i.TIM_TimeBaseInit)
    i.Tick_TIM7_Init                         0x080045ac   Section        0  general.o(i.Tick_TIM7_Init)
    i.UART8_IRQHandler                       0x0800460c   Section        0  usart.o(i.UART8_IRQHandler)
    i.USART1_IRQHandler                      0x08004678   Section        0  dr16.o(i.USART1_IRQHandler)
    i.USART3_IRQHandler                      0x08004754   Section        0  usart.o(i.USART3_IRQHandler)
    i.USART3_Send_NUC                        0x080047c0   Section        0  usart.o(i.USART3_Send_NUC)
    i.USART6_IRQHandler                      0x08004a14   Section        0  usart.o(i.USART6_IRQHandler)
    i.USART6_Init                            0x08004a3c   Section        0  usart.o(i.USART6_Init)
    i.USART8_Init                            0x08004af0   Section        0  usart.o(i.USART8_Init)
    i.USART8_Send_Task                       0x08004cd4   Section        0  usart.o(i.USART8_Send_Task)
    i.USART_ClearFlag                        0x08004d84   Section        0  stm32f4xx_usart.o(i.USART_ClearFlag)
    i.USART_Cmd                              0x08004d96   Section        0  stm32f4xx_usart.o(i.USART_Cmd)
    i.USART_DMACmd                           0x08004dae   Section        0  stm32f4xx_usart.o(i.USART_DMACmd)
    i.USART_DeInit                           0x08004dc0   Section        0  stm32f4xx_usart.o(i.USART_DeInit)
    i.USART_GetFlagStatus                    0x08004eb0   Section        0  stm32f4xx_usart.o(i.USART_GetFlagStatus)
    i.USART_GetITStatus                      0x08004eca   Section        0  stm32f4xx_usart.o(i.USART_GetITStatus)
    i.USART_ITConfig                         0x08004f1e   Section        0  stm32f4xx_usart.o(i.USART_ITConfig)
    i.USART_Init                             0x08004f68   Section        0  stm32f4xx_usart.o(i.USART_Init)
    i.USART_ReceiveData                      0x0800503c   Section        0  stm32f4xx_usart.o(i.USART_ReceiveData)
    i.USART_SendData                         0x08005046   Section        0  stm32f4xx_usart.o(i.USART_SendData)
    i.Up_To_Down_Decode_Task                 0x08005050   Section        0  usart.o(i.Up_To_Down_Decode_Task)
    i.UsageFault_Handler                     0x08005160   Section        0  stm32f4xx_it.o(i.UsageFault_Handler)
    i.Y_Swing                                0x08005164   Section        0  ptz.o(i.Y_Swing)
    i.__hardfp_fabs                          0x080051e0   Section        0  fabs.o(i.__hardfp_fabs)
    i._sys_exit                              0x080051f4   Section        0  usart.o(i._sys_exit)
    i.bit32TObit8                            0x080051f8   Section        0  usart.o(i.bit32TObit8)
    i.delay_init                             0x08005204   Section        0  delay.o(i.delay_init)
    i.delay_ms                               0x08005248   Section        0  delay.o(i.delay_ms)
    i.delay_us                               0x08005288   Section        0  delay.o(i.delay_us)
    i.fputc                                  0x080052d0   Section        0  usart.o(i.fputc)
    i.int8ToShort                            0x080052f4   Section        0  usart.o(i.int8ToShort)
    i.main                                   0x0800530c   Section        0  main.o(i.main)
    i.prvAddCurrentTaskToDelayedList         0x0800532c   Section        0  tasks.o(i.prvAddCurrentTaskToDelayedList)
    prvAddCurrentTaskToDelayedList           0x0800532d   Thumb Code   124  tasks.o(i.prvAddCurrentTaskToDelayedList)
    i.prvAddNewTaskToReadyList               0x080053c4   Section        0  tasks.o(i.prvAddNewTaskToReadyList)
    prvAddNewTaskToReadyList                 0x080053c5   Thumb Code   156  tasks.o(i.prvAddNewTaskToReadyList)
    i.prvCheckTasksWaitingTermination        0x0800547c   Section        0  tasks.o(i.prvCheckTasksWaitingTermination)
    prvCheckTasksWaitingTermination          0x0800547d   Thumb Code    60  tasks.o(i.prvCheckTasksWaitingTermination)
    i.prvDeleteTCB                           0x080054c4   Section        0  tasks.o(i.prvDeleteTCB)
    prvDeleteTCB                             0x080054c5   Thumb Code    18  tasks.o(i.prvDeleteTCB)
    i.prvHeapInit                            0x080054d8   Section        0  heap_4.o(i.prvHeapInit)
    prvHeapInit                              0x080054d9   Thumb Code    98  heap_4.o(i.prvHeapInit)
    i.prvIdleTask                            0x08005554   Section        0  tasks.o(i.prvIdleTask)
    prvIdleTask                              0x08005555   Thumb Code    32  tasks.o(i.prvIdleTask)
    i.prvInitialiseNewTask                   0x0800557c   Section        0  tasks.o(i.prvInitialiseNewTask)
    prvInitialiseNewTask                     0x0800557d   Thumb Code   186  tasks.o(i.prvInitialiseNewTask)
    i.prvInitialiseTaskLists                 0x08005660   Section        0  tasks.o(i.prvInitialiseTaskLists)
    prvInitialiseTaskLists                   0x08005661   Thumb Code    70  tasks.o(i.prvInitialiseTaskLists)
    i.prvInsertBlockIntoFreeList             0x080056c8   Section        0  heap_4.o(i.prvInsertBlockIntoFreeList)
    prvInsertBlockIntoFreeList               0x080056c9   Thumb Code    96  heap_4.o(i.prvInsertBlockIntoFreeList)
    i.prvResetNextTaskUnblockTime            0x08005730   Section        0  tasks.o(i.prvResetNextTaskUnblockTime)
    prvResetNextTaskUnblockTime              0x08005731   Thumb Code    42  tasks.o(i.prvResetNextTaskUnblockTime)
    i.prvTaskExitError                       0x08005764   Section        0  port.o(i.prvTaskExitError)
    prvTaskExitError                         0x08005765   Thumb Code    50  port.o(i.prvTaskExitError)
    i.pvPortMalloc                           0x080057d4   Section        0  heap_4.o(i.pvPortMalloc)
    i.pxPortInitialiseStack                  0x08005924   Section        0  port.o(i.pxPortInitialiseStack)
    i.shortToint8                            0x08005950   Section        0  usart.o(i.shortToint8)
    i.shortTou8                              0x0800595c   Section        0  usart.o(i.shortTou8)
    i.startTask                              0x08005968   Section        0  app_task.o(i.startTask)
    i.start_task                             0x08005994   Section        0  app_task.o(i.start_task)
    i.u8ToShort                              0x08005b00   Section        0  usart.o(i.u8ToShort)
    i.ulTaskNotifyTake                       0x08005b18   Section        0  tasks.o(i.ulTaskNotifyTake)
    i.uxListRemove                           0x08005b8c   Section        0  list.o(i.uxListRemove)
    i.vListInitialise                        0x08005bb4   Section        0  list.o(i.vListInitialise)
    i.vListInitialiseItem                    0x08005bce   Section        0  list.o(i.vListInitialiseItem)
    i.vListInsert                            0x08005bd4   Section        0  list.o(i.vListInsert)
    i.vListInsertEnd                         0x08005c08   Section        0  list.o(i.vListInsertEnd)
    i.vPortEnterCritical                     0x08005c20   Section        0  port.o(i.vPortEnterCritical)
    i.vPortExitCritical                      0x08005ca4   Section        0  port.o(i.vPortExitCritical)
    i.vPortFree                              0x08005d10   Section        0  heap_4.o(i.vPortFree)
    i.vPortSetupTimerInterrupt               0x08005dc4   Section        0  port.o(i.vPortSetupTimerInterrupt)
    i.vPortValidateInterruptPriority         0x08005de4   Section        0  port.o(i.vPortValidateInterruptPriority)
    i.vTaskDelay                             0x08005e80   Section        0  tasks.o(i.vTaskDelay)
    i.vTaskDelete                            0x08005ef8   Section        0  tasks.o(i.vTaskDelete)
    i.vTaskNotifyGiveFromISR                 0x08006008   Section        0  tasks.o(i.vTaskNotifyGiveFromISR)
    i.vTaskStartScheduler                    0x0800610c   Section        0  tasks.o(i.vTaskStartScheduler)
    i.vTaskSuspendAll                        0x080061bc   Section        0  tasks.o(i.vTaskSuspendAll)
    i.vTaskSwitchContext                     0x080061cc   Section        0  tasks.o(i.vTaskSwitchContext)
    i.xPortStartScheduler                    0x080062b8   Section        0  port.o(i.xPortStartScheduler)
    i.xPortSysTickHandler                    0x08006410   Section        0  port.o(i.xPortSysTickHandler)
    i.xTaskCreate                            0x08006444   Section        0  tasks.o(i.xTaskCreate)
    i.xTaskGetSchedulerState                 0x080064a4   Section        0  tasks.o(i.xTaskGetSchedulerState)
    i.xTaskIncrementTick                     0x080064c4   Section        0  tasks.o(i.xTaskIncrementTick)
    i.xTaskResumeAll                         0x08006628   Section        0  tasks.o(i.xTaskResumeAll)
    x$fpl$d2f                                0x0800674c   Section       98  d2f.o(x$fpl$d2f)
    $v0                                      0x0800674c   Number         0  d2f.o(x$fpl$d2f)
    x$fpl$dadd                               0x080067b0   Section      336  daddsub_clz.o(x$fpl$dadd)
    $v0                                      0x080067b0   Number         0  daddsub_clz.o(x$fpl$dadd)
    _dadd1                                   0x080067c1   Thumb Code     0  daddsub_clz.o(x$fpl$dadd)
    x$fpl$dcmpinf                            0x08006900   Section       24  dcmpi.o(x$fpl$dcmpinf)
    $v0                                      0x08006900   Number         0  dcmpi.o(x$fpl$dcmpinf)
    x$fpl$deqf                               0x08006918   Section      120  deqf.o(x$fpl$deqf)
    $v0                                      0x08006918   Number         0  deqf.o(x$fpl$deqf)
    x$fpl$dflt                               0x08006990   Section       46  dflt_clz.o(x$fpl$dflt)
    $v0                                      0x08006990   Number         0  dflt_clz.o(x$fpl$dflt)
    x$fpl$dleqf                              0x080069c0   Section      120  dleqf.o(x$fpl$dleqf)
    $v0                                      0x080069c0   Number         0  dleqf.o(x$fpl$dleqf)
    x$fpl$dnaninf                            0x08006a38   Section      156  dnaninf.o(x$fpl$dnaninf)
    $v0                                      0x08006a38   Number         0  dnaninf.o(x$fpl$dnaninf)
    x$fpl$dretinf                            0x08006ad4   Section       12  dretinf.o(x$fpl$dretinf)
    $v0                                      0x08006ad4   Number         0  dretinf.o(x$fpl$dretinf)
    x$fpl$drleqf                             0x08006ae0   Section      108  drleqf.o(x$fpl$drleqf)
    $v0                                      0x08006ae0   Number         0  drleqf.o(x$fpl$drleqf)
    x$fpl$dsub                               0x08006b4c   Section      468  daddsub_clz.o(x$fpl$dsub)
    $v0                                      0x08006b4c   Number         0  daddsub_clz.o(x$fpl$dsub)
    _dsub1                                   0x08006b5d   Thumb Code     0  daddsub_clz.o(x$fpl$dsub)
    x$fpl$f2d                                0x08006d20   Section       86  f2d.o(x$fpl$f2d)
    $v0                                      0x08006d20   Number         0  f2d.o(x$fpl$f2d)
    x$fpl$ffltll                             0x08006d76   Section       96  ffltll_clz.o(x$fpl$ffltll)
    $v0                                      0x08006d76   Number         0  ffltll_clz.o(x$fpl$ffltll)
    x$fpl$fnaninf                            0x08006dd6   Section      140  fnaninf.o(x$fpl$fnaninf)
    $v0                                      0x08006dd6   Number         0  fnaninf.o(x$fpl$fnaninf)
    x$fpl$fpinit                             0x08006e62   Section       10  fpinit.o(x$fpl$fpinit)
    $v0                                      0x08006e62   Number         0  fpinit.o(x$fpl$fpinit)
    x$fpl$fretinf                            0x08006e6c   Section       10  fretinf.o(x$fpl$fretinf)
    $v0                                      0x08006e6c   Number         0  fretinf.o(x$fpl$fretinf)
    x$fpl$usenofp                            0x08006e76   Section        0  usenofp.o(x$fpl$usenofp)
    .constdata                               0x08006e78   Section       20  imu.o(.constdata)
    .data                                    0x20000000   Section       16  stm32f4xx_rcc.o(.data)
    APBAHBPrescTable                         0x20000000   Data          16  stm32f4xx_rcc.o(.data)
    .data                                    0x20000010   Section       24  heap_4.o(.data)
    xStart                                   0x20000010   Data           8  heap_4.o(.data)
    pxEnd                                    0x20000018   Data           4  heap_4.o(.data)
    xFreeBytesRemaining                      0x2000001c   Data           4  heap_4.o(.data)
    xMinimumEverFreeBytesRemaining           0x20000020   Data           4  heap_4.o(.data)
    xBlockAllocatedBit                       0x20000024   Data           4  heap_4.o(.data)
    .data                                    0x20000028   Section       12  port.o(.data)
    uxCriticalNesting                        0x20000028   Data           4  port.o(.data)
    ucMaxSysCallPriority                     0x2000002c   Data           1  port.o(.data)
    ulMaxPRIGROUPValue                       0x20000030   Data           4  port.o(.data)
    .data                                    0x20000034   Section       68  tasks.o(.data)
    pxDelayedTaskList                        0x20000038   Data           4  tasks.o(.data)
    pxOverflowDelayedTaskList                0x2000003c   Data           4  tasks.o(.data)
    uxDeletedTasksWaitingCleanUp             0x20000040   Data           4  tasks.o(.data)
    uxCurrentNumberOfTasks                   0x20000044   Data           4  tasks.o(.data)
    xTickCount                               0x20000048   Data           4  tasks.o(.data)
    uxTopReadyPriority                       0x2000004c   Data           4  tasks.o(.data)
    xSchedulerRunning                        0x20000050   Data           4  tasks.o(.data)
    uxPendedTicks                            0x20000054   Data           4  tasks.o(.data)
    xYieldPending                            0x20000058   Data           4  tasks.o(.data)
    xNumOfOverflows                          0x2000005c   Data           4  tasks.o(.data)
    uxTaskNumber                             0x20000060   Data           4  tasks.o(.data)
    xNextTaskUnblockTime                     0x20000064   Data           4  tasks.o(.data)
    xIdleTaskHandle                          0x20000068   Data           4  tasks.o(.data)
    uxSchedulerSuspended                     0x2000006c   Data           4  tasks.o(.data)
    ulTaskSwitchedInTime                     0x20000070   Data           4  tasks.o(.data)
    ulTotalRunTime                           0x20000074   Data           4  tasks.o(.data)
    .data                                    0x20000078   Section        4  delay.o(.data)
    fac_us                                   0x20000078   Data           1  delay.o(.data)
    fac_ms                                   0x2000007a   Data           2  delay.o(.data)
    .data                                    0x2000007c   Section       20  system_stm32f4xx.o(.data)
    .data                                    0x20000090   Section        1  led.o(.data)
    .data                                    0x20000094   Section        4  tim2.o(.data)
    .data                                    0x20000098   Section       32  app_task.o(.data)
    StartTask_Handler                        0x20000098   Data           4  app_task.o(.data)
    .data                                    0x200000b8   Section       28  usart.o(.data)
    NUC_Start_Time                           0x200000d2   Data           2  usart.o(.data)
    .data                                    0x200000d4   Section       36  ptz.o(.data)
    ch2                                      0x200000ec   Data           4  ptz.o(.data)
    ch3                                      0x200000f0   Data           4  ptz.o(.data)
    speed                                    0x200000f4   Data           4  ptz.o(.data)
    .data                                    0x200000f8   Section       68  can.o(.data)
    CAN1_Tx_Flag                             0x200000f8   Data           4  can.o(.data)
    Yaw_Last_Angle_Init                      0x20000118   Data           4  can.o(.data)
    Yaw_Last_Angle                           0x2000011c   Data           4  can.o(.data)
    Yaw_Locked_Time                          0x20000120   Data           4  can.o(.data)
    Yaw_Last_MechanicalAngle                 0x20000128   Data           8  can.o(.data)
    Pitch_Last_Angle_Init                    0x20000130   Data           4  can.o(.data)
    Pitch_Last_Angle                         0x20000134   Data           4  can.o(.data)
    Pitch_Motor_206_Number                   0x20000138   Data           4  can.o(.data)
    .data                                    0x2000013c   Section        8  imu.o(.data)
    .data                                    0x20000144   Section        4  dr16.o(.data)
    this_time_rx_len                         0x20000146   Data           2  dr16.o(.data)
    .data                                    0x20000148   Section        8  shoot.o(.data)
    .data                                    0x20000150   Section       12  severo.o(.data)
    .data                                    0x2000015c   Section       12  general.o(.data)
    TimeTick1ms                              0x20000160   Data           4  general.o(.data)
    Mode_Last_Time                           0x20000164   Data           4  general.o(.data)
    .bss                                     0x20000168   Section    73728  heap_4.o(.bss)
    ucHeap                                   0x20000168   Data       73728  heap_4.o(.bss)
    .bss                                     0x20012168   Section      740  tasks.o(.bss)
    pxReadyTasksLists                        0x20012168   Data         640  tasks.o(.bss)
    xDelayedTaskList1                        0x200123e8   Data          20  tasks.o(.bss)
    xDelayedTaskList2                        0x200123fc   Data          20  tasks.o(.bss)
    xPendingReadyList                        0x20012410   Data          20  tasks.o(.bss)
    xTasksWaitingTermination                 0x20012424   Data          20  tasks.o(.bss)
    xSuspendedTaskList                       0x20012438   Data          20  tasks.o(.bss)
    .bss                                     0x2001244c   Section      112  usart.o(.bss)
    .bss                                     0x200124bc   Section       20  ptz.o(.bss)
    .bss                                     0x200124d0   Section       40  can.o(.bss)
    .bss                                     0x200124f8   Section     1456  pid.o(.bss)
    .bss                                     0x20012aa8   Section      120  imu.o(.bss)
    .bss                                     0x20012b20   Section       94  dr16.o(.bss)
    SBUS_rx_buf                              0x20012b36   Data          72  dr16.o(.bss)
    .bss                                     0x20012b80   Section       96  libspace.o(.bss)
    HEAP                                     0x20012be0   Section      512  startup_stm32f427_437xx.o(HEAP)
    Heap_Mem                                 0x20012be0   Data         512  startup_stm32f427_437xx.o(HEAP)
    STACK                                    0x20012de0   Section     1024  startup_stm32f427_437xx.o(STACK)
    Stack_Mem                                0x20012de0   Data        1024  startup_stm32f427_437xx.o(STACK)
    __initial_sp                             0x200131e0   Data           0  startup_stm32f427_437xx.o(STACK)

    Global Symbols

    Symbol Name                              Value     Ov Type        Size  Object(Section)

    BuildAttributes$$THM_ISAv4$E$P$D$K$B$S$7EM$VFPi3$EXTD16$VFPS$VFMA$PE$A:L22UL41UL21$X:L11$S22US41US21$IEEE1$IW$USESV6$~STKCKD$USESV7$~SHL$OTIME$ROPI$IEEEJ$EBA8$UX$STANDARDLIB$REQ8$PRES8$EABIv2 0x00000000   Number         0  anon$$obj.o ABSOLUTE
    __ARM_use_no_argv                        0x00000000   Number         0  main.o ABSOLUTE
    __ARM_exceptions_init                     - Undefined Weak Reference
    __alloca_initialize                       - Undefined Weak Reference
    __arm_preinit_                            - Undefined Weak Reference
    __cpp_initialize__aeabi_                  - Undefined Weak Reference
    __cxa_finalize                            - Undefined Weak Reference
    __rt_locale                               - Undefined Weak Reference
    __sigvec_lookup                           - Undefined Weak Reference
    _atexit_init                              - Undefined Weak Reference
    _call_atexit_fns                          - Undefined Weak Reference
    _clock_init                               - Undefined Weak Reference
    _fp_trap_init                             - Undefined Weak Reference
    _fp_trap_shutdown                         - Undefined Weak Reference
    _get_lc_collate                           - Undefined Weak Reference
    _get_lc_ctype                             - Undefined Weak Reference
    _get_lc_monetary                          - Undefined Weak Reference
    _get_lc_numeric                           - Undefined Weak Reference
    _get_lc_time                              - Undefined Weak Reference
    _getenv_init                              - Undefined Weak Reference
    _handle_redirection                       - Undefined Weak Reference
    _init_alloc                               - Undefined Weak Reference
    _init_user_alloc                          - Undefined Weak Reference
    _initio                                   - Undefined Weak Reference
    _mutex_acquire                            - Undefined Weak Reference
    _mutex_release                            - Undefined Weak Reference
    _printf_mbtowc                            - Undefined Weak Reference
    _printf_post_padding                      - Undefined Weak Reference
    _printf_pre_padding                       - Undefined Weak Reference
    _printf_truncate_signed                   - Undefined Weak Reference
    _printf_truncate_unsigned                 - Undefined Weak Reference
    _rand_init                                - Undefined Weak Reference
    _signal_finish                            - Undefined Weak Reference
    _signal_init                              - Undefined Weak Reference
    _terminate_alloc                          - Undefined Weak Reference
    _terminate_user_alloc                     - Undefined Weak Reference
    _terminateio                              - Undefined Weak Reference
    __Vectors_Size                           0x000001ac   Number         0  startup_stm32f427_437xx.o ABSOLUTE
    __Vectors                                0x08000000   Data           4  startup_stm32f427_437xx.o(RESET)
    __Vectors_End                            0x080001ac   Data           0  startup_stm32f427_437xx.o(RESET)
    __main                                   0x080001ad   Thumb Code     8  __main.o(!!!main)
    __scatterload                            0x080001b5   Thumb Code     0  __scatter.o(!!!scatter)
    __scatterload_rt2                        0x080001b5   Thumb Code    44  __scatter.o(!!!scatter)
    __scatterload_rt2_thumb_only             0x080001b5   Thumb Code     0  __scatter.o(!!!scatter)
    __scatterload_null                       0x080001c3   Thumb Code     0  __scatter.o(!!!scatter)
    __decompress                             0x080001e9   Thumb Code    90  __dczerorl2.o(!!dczerorl2)
    __decompress1                            0x080001e9   Thumb Code     0  __dczerorl2.o(!!dczerorl2)
    __scatterload_zeroinit                   0x08000245   Thumb Code    28  __scatter_zi.o(!!handler_zi)
    _printf_d                                0x08000261   Thumb Code     0  _printf_d.o(.ARM.Collect$$_printf_percent$$00000009)
    _printf_percent                          0x08000261   Thumb Code     0  _printf_percent.o(.ARM.Collect$$_printf_percent$$00000000)
    _printf_s                                0x08000267   Thumb Code     0  _printf_s.o(.ARM.Collect$$_printf_percent$$00000014)
    _printf_percent_end                      0x0800026d   Thumb Code     0  _printf_percent_end.o(.ARM.Collect$$_printf_percent$$00000017)
    __rt_lib_init                            0x08000271   Thumb Code     0  libinit.o(.ARM.Collect$$libinit$$00000000)
    __rt_lib_init_fp_1                       0x08000273   Thumb Code     0  libinit2.o(.ARM.Collect$$libinit$$00000001)
    __rt_lib_init_alloca_1                   0x08000277   Thumb Code     0  libinit2.o(.ARM.Collect$$libinit$$0000002E)
    __rt_lib_init_argv_1                     0x08000277   Thumb Code     0  libinit2.o(.ARM.Collect$$libinit$$0000002C)
    __rt_lib_init_atexit_1                   0x08000277   Thumb Code     0  libinit2.o(.ARM.Collect$$libinit$$0000001B)
    __rt_lib_init_clock_1                    0x08000277   Thumb Code     0  libinit2.o(.ARM.Collect$$libinit$$00000021)
    __rt_lib_init_cpp_1                      0x08000277   Thumb Code     0  libinit2.o(.ARM.Collect$$libinit$$00000032)
    __rt_lib_init_exceptions_1               0x08000277   Thumb Code     0  libinit2.o(.ARM.Collect$$libinit$$00000030)
    __rt_lib_init_fp_trap_1                  0x08000277   Thumb Code     0  libinit2.o(.ARM.Collect$$libinit$$0000001F)
    __rt_lib_init_getenv_1                   0x08000277   Thumb Code     0  libinit2.o(.ARM.Collect$$libinit$$00000023)
    __rt_lib_init_heap_1                     0x08000277   Thumb Code     0  libinit2.o(.ARM.Collect$$libinit$$0000000A)
    __rt_lib_init_lc_collate_1               0x08000277   Thumb Code     0  libinit2.o(.ARM.Collect$$libinit$$00000011)
    __rt_lib_init_lc_ctype_1                 0x08000277   Thumb Code     0  libinit2.o(.ARM.Collect$$libinit$$00000013)
    __rt_lib_init_lc_monetary_1              0x08000277   Thumb Code     0  libinit2.o(.ARM.Collect$$libinit$$00000015)
    __rt_lib_init_lc_numeric_1               0x08000277   Thumb Code     0  libinit2.o(.ARM.Collect$$libinit$$00000017)
    __rt_lib_init_lc_time_1                  0x08000277   Thumb Code     0  libinit2.o(.ARM.Collect$$libinit$$00000019)
    __rt_lib_init_preinit_1                  0x08000277   Thumb Code     0  libinit2.o(.ARM.Collect$$libinit$$00000004)
    __rt_lib_init_rand_1                     0x08000277   Thumb Code     0  libinit2.o(.ARM.Collect$$libinit$$0000000E)
    __rt_lib_init_return                     0x08000277   Thumb Code     0  libinit2.o(.ARM.Collect$$libinit$$00000033)
    __rt_lib_init_signal_1                   0x08000277   Thumb Code     0  libinit2.o(.ARM.Collect$$libinit$$0000001D)
    __rt_lib_init_stdio_1                    0x08000277   Thumb Code     0  libinit2.o(.ARM.Collect$$libinit$$00000025)
    __rt_lib_init_user_alloc_1               0x08000277   Thumb Code     0  libinit2.o(.ARM.Collect$$libinit$$0000000C)
    __rt_lib_shutdown                        0x08000279   Thumb Code     0  libshutdown.o(.ARM.Collect$$libshutdown$$00000000)
    __rt_lib_shutdown_cpp_1                  0x0800027b   Thumb Code     0  libshutdown2.o(.ARM.Collect$$libshutdown$$00000002)
    __rt_lib_shutdown_fp_trap_1              0x0800027b   Thumb Code     0  libshutdown2.o(.ARM.Collect$$libshutdown$$00000007)
    __rt_lib_shutdown_heap_1                 0x0800027b   Thumb Code     0  libshutdown2.o(.ARM.Collect$$libshutdown$$0000000F)
    __rt_lib_shutdown_return                 0x0800027b   Thumb Code     0  libshutdown2.o(.ARM.Collect$$libshutdown$$00000010)
    __rt_lib_shutdown_signal_1               0x0800027b   Thumb Code     0  libshutdown2.o(.ARM.Collect$$libshutdown$$0000000A)
    __rt_lib_shutdown_stdio_1                0x0800027b   Thumb Code     0  libshutdown2.o(.ARM.Collect$$libshutdown$$00000004)
    __rt_lib_shutdown_user_alloc_1           0x0800027b   Thumb Code     0  libshutdown2.o(.ARM.Collect$$libshutdown$$0000000C)
    __rt_entry                               0x0800027d   Thumb Code     0  __rtentry.o(.ARM.Collect$$rtentry$$00000000)
    __rt_entry_presh_1                       0x0800027d   Thumb Code     0  __rtentry2.o(.ARM.Collect$$rtentry$$00000002)
    __rt_entry_sh                            0x0800027d   Thumb Code     0  __rtentry4.o(.ARM.Collect$$rtentry$$00000004)
    __rt_entry_li                            0x08000283   Thumb Code     0  __rtentry2.o(.ARM.Collect$$rtentry$$0000000A)
    __rt_entry_postsh_1                      0x08000283   Thumb Code     0  __rtentry2.o(.ARM.Collect$$rtentry$$00000009)
    __rt_entry_main                          0x08000287   Thumb Code     0  __rtentry2.o(.ARM.Collect$$rtentry$$0000000D)
    __rt_entry_postli_1                      0x08000287   Thumb Code     0  __rtentry2.o(.ARM.Collect$$rtentry$$0000000C)
    __rt_exit                                0x0800028f   Thumb Code     0  rtexit.o(.ARM.Collect$$rtexit$$00000000)
    __rt_exit_ls                             0x08000291   Thumb Code     0  rtexit2.o(.ARM.Collect$$rtexit$$00000003)
    __rt_exit_prels_1                        0x08000291   Thumb Code     0  rtexit2.o(.ARM.Collect$$rtexit$$00000002)
    __rt_exit_exit                           0x08000295   Thumb Code     0  rtexit2.o(.ARM.Collect$$rtexit$$00000004)
    SVC_Handler                              0x0800029d   Thumb Code    28  port.o(.emb_text)
    __asm___6_port_c_39a90d8d__prvStartFirstTask 0x080002bd   Thumb Code    28  port.o(.emb_text)
    __asm___6_port_c_39a90d8d__prvEnableVFP  0x080002dd   Thumb Code    16  port.o(.emb_text)
    PendSV_Handler                           0x080002f1   Thumb Code    88  port.o(.emb_text)
    vPortGetIPSR                             0x0800034d   Thumb Code     6  port.o(.emb_text)
    Reset_Handler                            0x08000355   Thumb Code     8  startup_stm32f427_437xx.o(.text)
    ADC_IRQHandler                           0x0800036f   Thumb Code     0  startup_stm32f427_437xx.o(.text)
    CAN1_RX1_IRQHandler                      0x0800036f   Thumb Code     0  startup_stm32f427_437xx.o(.text)
    CAN1_SCE_IRQHandler                      0x0800036f   Thumb Code     0  startup_stm32f427_437xx.o(.text)
    CAN2_RX0_IRQHandler                      0x0800036f   Thumb Code     0  startup_stm32f427_437xx.o(.text)
    CAN2_RX1_IRQHandler                      0x0800036f   Thumb Code     0  startup_stm32f427_437xx.o(.text)
    CAN2_SCE_IRQHandler                      0x0800036f   Thumb Code     0  startup_stm32f427_437xx.o(.text)
    CAN2_TX_IRQHandler                       0x0800036f   Thumb Code     0  startup_stm32f427_437xx.o(.text)
    CRYP_IRQHandler                          0x0800036f   Thumb Code     0  startup_stm32f427_437xx.o(.text)
    DCMI_IRQHandler                          0x0800036f   Thumb Code     0  startup_stm32f427_437xx.o(.text)
    DMA1_Stream1_IRQHandler                  0x0800036f   Thumb Code     0  startup_stm32f427_437xx.o(.text)
    DMA1_Stream2_IRQHandler                  0x0800036f   Thumb Code     0  startup_stm32f427_437xx.o(.text)
    DMA1_Stream4_IRQHandler                  0x0800036f   Thumb Code     0  startup_stm32f427_437xx.o(.text)
    DMA1_Stream5_IRQHandler                  0x0800036f   Thumb Code     0  startup_stm32f427_437xx.o(.text)
    DMA1_Stream6_IRQHandler                  0x0800036f   Thumb Code     0  startup_stm32f427_437xx.o(.text)
    DMA1_Stream7_IRQHandler                  0x0800036f   Thumb Code     0  startup_stm32f427_437xx.o(.text)
    DMA2D_IRQHandler                         0x0800036f   Thumb Code     0  startup_stm32f427_437xx.o(.text)
    DMA2_Stream0_IRQHandler                  0x0800036f   Thumb Code     0  startup_stm32f427_437xx.o(.text)
    DMA2_Stream1_IRQHandler                  0x0800036f   Thumb Code     0  startup_stm32f427_437xx.o(.text)
    DMA2_Stream2_IRQHandler                  0x0800036f   Thumb Code     0  startup_stm32f427_437xx.o(.text)
    DMA2_Stream3_IRQHandler                  0x0800036f   Thumb Code     0  startup_stm32f427_437xx.o(.text)
    DMA2_Stream4_IRQHandler                  0x0800036f   Thumb Code     0  startup_stm32f427_437xx.o(.text)
    DMA2_Stream5_IRQHandler                  0x0800036f   Thumb Code     0  startup_stm32f427_437xx.o(.text)
    DMA2_Stream6_IRQHandler                  0x0800036f   Thumb Code     0  startup_stm32f427_437xx.o(.text)
    DMA2_Stream7_IRQHandler                  0x0800036f   Thumb Code     0  startup_stm32f427_437xx.o(.text)
    ETH_IRQHandler                           0x0800036f   Thumb Code     0  startup_stm32f427_437xx.o(.text)
    ETH_WKUP_IRQHandler                      0x0800036f   Thumb Code     0  startup_stm32f427_437xx.o(.text)
    EXTI0_IRQHandler                         0x0800036f   Thumb Code     0  startup_stm32f427_437xx.o(.text)
    EXTI15_10_IRQHandler                     0x0800036f   Thumb Code     0  startup_stm32f427_437xx.o(.text)
    EXTI1_IRQHandler                         0x0800036f   Thumb Code     0  startup_stm32f427_437xx.o(.text)
    EXTI2_IRQHandler                         0x0800036f   Thumb Code     0  startup_stm32f427_437xx.o(.text)
    EXTI3_IRQHandler                         0x0800036f   Thumb Code     0  startup_stm32f427_437xx.o(.text)
    EXTI4_IRQHandler                         0x0800036f   Thumb Code     0  startup_stm32f427_437xx.o(.text)
    FLASH_IRQHandler                         0x0800036f   Thumb Code     0  startup_stm32f427_437xx.o(.text)
    FMC_IRQHandler                           0x0800036f   Thumb Code     0  startup_stm32f427_437xx.o(.text)
    FPU_IRQHandler                           0x0800036f   Thumb Code     0  startup_stm32f427_437xx.o(.text)
    HASH_RNG_IRQHandler                      0x0800036f   Thumb Code     0  startup_stm32f427_437xx.o(.text)
    I2C1_ER_IRQHandler                       0x0800036f   Thumb Code     0  startup_stm32f427_437xx.o(.text)
    I2C1_EV_IRQHandler                       0x0800036f   Thumb Code     0  startup_stm32f427_437xx.o(.text)
    I2C2_ER_IRQHandler                       0x0800036f   Thumb Code     0  startup_stm32f427_437xx.o(.text)
    I2C2_EV_IRQHandler                       0x0800036f   Thumb Code     0  startup_stm32f427_437xx.o(.text)
    I2C3_ER_IRQHandler                       0x0800036f   Thumb Code     0  startup_stm32f427_437xx.o(.text)
    I2C3_EV_IRQHandler                       0x0800036f   Thumb Code     0  startup_stm32f427_437xx.o(.text)
    OTG_FS_IRQHandler                        0x0800036f   Thumb Code     0  startup_stm32f427_437xx.o(.text)
    OTG_FS_WKUP_IRQHandler                   0x0800036f   Thumb Code     0  startup_stm32f427_437xx.o(.text)
    OTG_HS_EP1_IN_IRQHandler                 0x0800036f   Thumb Code     0  startup_stm32f427_437xx.o(.text)
    OTG_HS_EP1_OUT_IRQHandler                0x0800036f   Thumb Code     0  startup_stm32f427_437xx.o(.text)
    OTG_HS_IRQHandler                        0x0800036f   Thumb Code     0  startup_stm32f427_437xx.o(.text)
    OTG_HS_WKUP_IRQHandler                   0x0800036f   Thumb Code     0  startup_stm32f427_437xx.o(.text)
    PVD_IRQHandler                           0x0800036f   Thumb Code     0  startup_stm32f427_437xx.o(.text)
    RCC_IRQHandler                           0x0800036f   Thumb Code     0  startup_stm32f427_437xx.o(.text)
    RTC_Alarm_IRQHandler                     0x0800036f   Thumb Code     0  startup_stm32f427_437xx.o(.text)
    RTC_WKUP_IRQHandler                      0x0800036f   Thumb Code     0  startup_stm32f427_437xx.o(.text)
    SAI1_IRQHandler                          0x0800036f   Thumb Code     0  startup_stm32f427_437xx.o(.text)
    SDIO_IRQHandler                          0x0800036f   Thumb Code     0  startup_stm32f427_437xx.o(.text)
    SPI1_IRQHandler                          0x0800036f   Thumb Code     0  startup_stm32f427_437xx.o(.text)
    SPI2_IRQHandler                          0x0800036f   Thumb Code     0  startup_stm32f427_437xx.o(.text)
    SPI3_IRQHandler                          0x0800036f   Thumb Code     0  startup_stm32f427_437xx.o(.text)
    SPI4_IRQHandler                          0x0800036f   Thumb Code     0  startup_stm32f427_437xx.o(.text)
    SPI5_IRQHandler                          0x0800036f   Thumb Code     0  startup_stm32f427_437xx.o(.text)
    SPI6_IRQHandler                          0x0800036f   Thumb Code     0  startup_stm32f427_437xx.o(.text)
    TAMP_STAMP_IRQHandler                    0x0800036f   Thumb Code     0  startup_stm32f427_437xx.o(.text)
    TIM1_BRK_TIM9_IRQHandler                 0x0800036f   Thumb Code     0  startup_stm32f427_437xx.o(.text)
    TIM1_CC_IRQHandler                       0x0800036f   Thumb Code     0  startup_stm32f427_437xx.o(.text)
    TIM1_TRG_COM_TIM11_IRQHandler            0x0800036f   Thumb Code     0  startup_stm32f427_437xx.o(.text)
    TIM1_UP_TIM10_IRQHandler                 0x0800036f   Thumb Code     0  startup_stm32f427_437xx.o(.text)
    TIM3_IRQHandler                          0x0800036f   Thumb Code     0  startup_stm32f427_437xx.o(.text)
    TIM4_IRQHandler                          0x0800036f   Thumb Code     0  startup_stm32f427_437xx.o(.text)
    TIM5_IRQHandler                          0x0800036f   Thumb Code     0  startup_stm32f427_437xx.o(.text)
    TIM6_DAC_IRQHandler                      0x0800036f   Thumb Code     0  startup_stm32f427_437xx.o(.text)
    TIM8_BRK_TIM12_IRQHandler                0x0800036f   Thumb Code     0  startup_stm32f427_437xx.o(.text)
    TIM8_CC_IRQHandler                       0x0800036f   Thumb Code     0  startup_stm32f427_437xx.o(.text)
    TIM8_TRG_COM_TIM14_IRQHandler            0x0800036f   Thumb Code     0  startup_stm32f427_437xx.o(.text)
    TIM8_UP_TIM13_IRQHandler                 0x0800036f   Thumb Code     0  startup_stm32f427_437xx.o(.text)
    UART4_IRQHandler                         0x0800036f   Thumb Code     0  startup_stm32f427_437xx.o(.text)
    UART5_IRQHandler                         0x0800036f   Thumb Code     0  startup_stm32f427_437xx.o(.text)
    UART7_IRQHandler                         0x0800036f   Thumb Code     0  startup_stm32f427_437xx.o(.text)
    USART2_IRQHandler                        0x0800036f   Thumb Code     0  startup_stm32f427_437xx.o(.text)
    WWDG_IRQHandler                          0x0800036f   Thumb Code     0  startup_stm32f427_437xx.o(.text)
    __user_initial_stackheap                 0x08000371   Thumb Code     0  startup_stm32f427_437xx.o(.text)
    __use_no_semihosting                     0x08000395   Thumb Code     2  use_no_semi_2.o(.text)
    __aeabi_ldivmod                          0x08000397   Thumb Code     0  llsdiv.o(.text)
    _ll_sdiv                                 0x08000397   Thumb Code    72  llsdiv.o(.text)
    __2printf                                0x080003e1   Thumb Code    20  noretval__2printf.o(.text)
    __printf                                 0x080003f9   Thumb Code   104  __printf.o(.text)
    _printf_str                              0x08000461   Thumb Code    82  _printf_str.o(.text)
    _printf_int_dec                          0x080004b5   Thumb Code   104  _printf_dec.o(.text)
    __aeabi_memcpy4                          0x0800052d   Thumb Code     0  rt_memcpy_w.o(.text)
    __aeabi_memcpy8                          0x0800052d   Thumb Code     0  rt_memcpy_w.o(.text)
    __rt_memcpy_w                            0x0800052d   Thumb Code   100  rt_memcpy_w.o(.text)
    _memcpy_lastbytes_aligned                0x08000575   Thumb Code     0  rt_memcpy_w.o(.text)
    __aeabi_memset                           0x08000591   Thumb Code    16  aeabi_memset.o(.text)
    __use_two_region_memory                  0x080005a1   Thumb Code     2  heapauxi.o(.text)
    __rt_heap_escrow$2region                 0x080005a3   Thumb Code     2  heapauxi.o(.text)
    __rt_heap_expand$2region                 0x080005a5   Thumb Code     2  heapauxi.o(.text)
    __I$use$semihosting                      0x080005a7   Thumb Code     0  use_no_semi.o(.text)
    __use_no_semihosting_swi                 0x080005a7   Thumb Code     2  use_no_semi.o(.text)
    __aeabi_uldivmod                         0x080005a9   Thumb Code     0  lludivv7m.o(.text)
    _ll_udiv                                 0x080005a9   Thumb Code   238  lludivv7m.o(.text)
    _printf_int_common                       0x08000697   Thumb Code   178  _printf_intcommon.o(.text)
    _printf_char_common                      0x08000753   Thumb Code    32  _printf_char_common.o(.text)
    _printf_cs_common                        0x08000779   Thumb Code    20  _printf_char.o(.text)
    _printf_char                             0x0800078d   Thumb Code    16  _printf_char.o(.text)
    _printf_string                           0x0800079d   Thumb Code     8  _printf_char.o(.text)
    _printf_char_file                        0x080007a5   Thumb Code    32  _printf_char_file.o(.text)
    __aeabi_memclr                           0x080007c9   Thumb Code     0  rt_memclr.o(.text)
    __rt_memclr                              0x080007c9   Thumb Code    68  rt_memclr.o(.text)
    _memset                                  0x080007cd   Thumb Code     0  rt_memclr.o(.text)
    ferror                                   0x0800080d   Thumb Code     8  ferror.o(.text)
    __aeabi_memclr4                          0x08000815   Thumb Code     0  rt_memclr_w.o(.text)
    __aeabi_memclr8                          0x08000815   Thumb Code     0  rt_memclr_w.o(.text)
    __rt_memclr_w                            0x08000815   Thumb Code    78  rt_memclr_w.o(.text)
    _memset_w                                0x08000819   Thumb Code     0  rt_memclr_w.o(.text)
    __user_setup_stackheap                   0x08000863   Thumb Code    74  sys_stackheap_outer.o(.text)
    exit                                     0x080008ad   Thumb Code    18  exit.o(.text)
    __user_libspace                          0x080008c1   Thumb Code     8  libspace.o(.text)
    __user_perproc_libspace                  0x080008c1   Thumb Code     0  libspace.o(.text)
    __user_perthread_libspace                0x080008c1   Thumb Code     0  libspace.o(.text)
    BaseHardwork_Init                        0x080008c9   Thumb Code    44  main.o(i.BaseHardwork_Init)
    Beep_Init                                0x080008f5   Thumb Code   154  beep.o(i.Beep_Init)
    Beep_OFF                                 0x08000999   Thumb Code    12  beep.o(i.Beep_OFF)
    Beep_ON                                  0x080009a9   Thumb Code    12  beep.o(i.Beep_ON)
    BusFault_Handler                         0x080009b9   Thumb Code     4  stm32f4xx_it.o(i.BusFault_Handler)
    CAN1_Init                                0x080009bd   Thumb Code   282  can.o(i.CAN1_Init)
    CAN1_RX0_IRQHandler                      0x08000ae1   Thumb Code   212  can.o(i.CAN1_RX0_IRQHandler)
    CAN1_TX_Friction                         0x08000bc9   Thumb Code   108  can.o(i.CAN1_TX_Friction)
    CAN1_TX_IRQHandler                       0x08000c45   Thumb Code    28  can.o(i.CAN1_TX_IRQHandler)
    CAN1_TX_PTZ                              0x08000c69   Thumb Code   108  can.o(i.CAN1_TX_PTZ)
    CAN_ClearITPendingBit                    0x08000ce5   Thumb Code   162  stm32f4xx_can.o(i.CAN_ClearITPendingBit)
    CAN_DeInit                               0x08000d8d   Thumb Code    50  stm32f4xx_can.o(i.CAN_DeInit)
    CAN_FilterInit                           0x08000dc5   Thumb Code   258  stm32f4xx_can.o(i.CAN_FilterInit)
    CAN_GetITStatus                          0x08000ecd   Thumb Code   284  stm32f4xx_can.o(i.CAN_GetITStatus)
    CAN_ITConfig                             0x08000fed   Thumb Code    18  stm32f4xx_can.o(i.CAN_ITConfig)
    CAN_Init                                 0x08000fff   Thumb Code   276  stm32f4xx_can.o(i.CAN_Init)
    CAN_Receive                              0x08001113   Thumb Code   240  stm32f4xx_can.o(i.CAN_Receive)
    CAN_StructInit                           0x08001203   Thumb Code    32  stm32f4xx_can.o(i.CAN_StructInit)
    CAN_Transmit                             0x08001223   Thumb Code   294  stm32f4xx_can.o(i.CAN_Transmit)
    DMA1_Stream0_IRQHandler                  0x0800135d   Thumb Code    48  usart.o(i.DMA1_Stream0_IRQHandler)
    DMA1_Stream3_IRQHandler                  0x08001399   Thumb Code    40  usart.o(i.DMA1_Stream3_IRQHandler)
    DMA_ClearFlag                            0x080013c9   Thumb Code    38  stm32f4xx_dma.o(i.DMA_ClearFlag)
    DMA_ClearITPendingBit                    0x080013fd   Thumb Code    38  stm32f4xx_dma.o(i.DMA_ClearITPendingBit)
    DMA_Cmd                                  0x08001431   Thumb Code    22  stm32f4xx_dma.o(i.DMA_Cmd)
    DMA_DeInit                               0x08001449   Thumb Code   324  stm32f4xx_dma.o(i.DMA_DeInit)
    DMA_DoubleBufferModeCmd                  0x080015a1   Thumb Code    22  stm32f4xx_dma.o(i.DMA_DoubleBufferModeCmd)
    DMA_DoubleBufferModeConfig               0x080015b7   Thumb Code    24  stm32f4xx_dma.o(i.DMA_DoubleBufferModeConfig)
    DMA_GetCurrDataCounter                   0x080015cf   Thumb Code     8  stm32f4xx_dma.o(i.DMA_GetCurrDataCounter)
    DMA_GetCurrentMemoryTarget               0x080015d7   Thumb Code    20  stm32f4xx_dma.o(i.DMA_GetCurrentMemoryTarget)
    DMA_GetITStatus                          0x080015ed   Thumb Code    82  stm32f4xx_dma.o(i.DMA_GetITStatus)
    DMA_ITConfig                             0x08001651   Thumb Code    58  stm32f4xx_dma.o(i.DMA_ITConfig)
    DMA_Init                                 0x0800168d   Thumb Code    82  stm32f4xx_dma.o(i.DMA_Init)
    DMA_SetCurrDataCounter                   0x080016e5   Thumb Code     4  stm32f4xx_dma.o(i.DMA_SetCurrDataCounter)
    DR16_InitConfig                          0x080016e9   Thumb Code    16  dr16.o(i.DR16_InitConfig)
    DebugMon_Handler                         0x080016fd   Thumb Code     2  stm32f4xx_it.o(i.DebugMon_Handler)
    EXTI9_5_IRQHandler                       0x08001701   Thumb Code    54  imu.o(i.EXTI9_5_IRQHandler)
    EXTI_ClearITPendingBit                   0x08001741   Thumb Code     6  stm32f4xx_exti.o(i.EXTI_ClearITPendingBit)
    EXTI_GetITStatus                         0x0800174d   Thumb Code    20  stm32f4xx_exti.o(i.EXTI_GetITStatus)
    EXTI_Init                                0x08001765   Thumb Code   142  stm32f4xx_exti.o(i.EXTI_Init)
    GPIO_Init                                0x080017f9   Thumb Code   144  stm32f4xx_gpio.o(i.GPIO_Init)
    GPIO_PinAFConfig                         0x08001889   Thumb Code    70  stm32f4xx_gpio.o(i.GPIO_PinAFConfig)
    GPIO_ResetBits                           0x080018cf   Thumb Code     4  stm32f4xx_gpio.o(i.GPIO_ResetBits)
    GPIO_SetBits                             0x080018d3   Thumb Code     4  stm32f4xx_gpio.o(i.GPIO_SetBits)
    GPIO_ToggleBits                          0x080018d7   Thumb Code     8  stm32f4xx_gpio.o(i.GPIO_ToggleBits)
    HardFault_Handler                        0x080018df   Thumb Code     4  stm32f4xx_it.o(i.HardFault_Handler)
    Heart_Task                               0x080018e5   Thumb Code    28  led.o(i.Heart_Task)
    IMU_Get_Data                             0x08001905   Thumb Code   474  imu.o(i.IMU_Get_Data)
    IMU_Get_Data_Task                        0x08001b09   Thumb Code    28  imu.o(i.IMU_Get_Data_Task)
    IMU_Init                                 0x08001b25   Thumb Code   108  imu.o(i.IMU_Init)
    LED_Init                                 0x08001b99   Thumb Code   116  led.o(i.LED_Init)
    Laser_InitConfig                         0x08001c15   Thumb Code    60  laser.o(i.Laser_InitConfig)
    MPU6500_Gyro_Cali                        0x08001c55   Thumb Code   216  imu.o(i.MPU6500_Gyro_Cali)
    MPU6500_Read_Reg                         0x08001d41   Thumb Code    40  imu.o(i.MPU6500_Read_Reg)
    MPU6500_Read_Regs                        0x08001d6d   Thumb Code    54  imu.o(i.MPU6500_Read_Regs)
    MPU6500_Write_Reg                        0x08001da5   Thumb Code    40  imu.o(i.MPU6500_Write_Reg)
    MPU_6500_Interrupt_InitConfig            0x08001dd1   Thumb Code   128  imu.o(i.MPU_6500_Interrupt_InitConfig)
    MemManage_Handler                        0x08001e55   Thumb Code     4  stm32f4xx_it.o(i.MemManage_Handler)
    MoCaLun_Close_3508                       0x08001e59   Thumb Code    88  shoot.o(i.MoCaLun_Close_3508)
    MoCaLun_Control_Task                     0x08001ec5   Thumb Code   126  shoot.o(i.MoCaLun_Control_Task)
    MoCaLun_Open_3508                        0x08001f4d   Thumb Code    96  shoot.o(i.MoCaLun_Open_3508)
    NMI_Handler                              0x08001fc5   Thumb Code     2  stm32f4xx_it.o(i.NMI_Handler)
    NUC_Decode_Task                          0x08001fc9   Thumb Code   360  usart.o(i.NUC_Decode_Task)
    NUC_Init                                 0x08002159   Thumb Code   458  usart.o(i.NUC_Init)
    NVIC_Init                                0x08002345   Thumb Code   106  misc.o(i.NVIC_Init)
    NVIC_PriorityGroupConfig                 0x080023bd   Thumb Code    10  misc.o(i.NVIC_PriorityGroupConfig)
    PID_Init                                 0x080023d1   Thumb Code  2818  pid.o(i.PID_Init)
    PTZ_Auto_No_Limit                        0x08002ef9   Thumb Code   296  ptz.o(i.PTZ_Auto_No_Limit)
    PTZ_Control_Hand                         0x08003069   Thumb Code   348  ptz.o(i.PTZ_Control_Hand)
    PTZ_Control_Task                         0x0800320d   Thumb Code   118  ptz.o(i.PTZ_Control_Task)
    PTZ_Init_PITCH                           0x08003299   Thumb Code   162  ptz.o(i.PTZ_Init_PITCH)
    PTZ_Init_Yaw                             0x08003359   Thumb Code   208  ptz.o(i.PTZ_Init_Yaw)
    P_Swing                                  0x08003449   Thumb Code   236  ptz.o(i.P_Swing)
    Pid_Calc                                 0x08003555   Thumb Code   742  pid.o(i.Pid_Calc)
    Position_Direction_Judge                 0x08003855   Thumb Code   332  can.o(i.Position_Direction_Judge)
    Position_Direction_Judge_Pitch           0x080039d9   Thumb Code   112  can.o(i.Position_Direction_Judge_Pitch)
    RCC_AHB1PeriphClockCmd                   0x08003a5d   Thumb Code    26  stm32f4xx_rcc.o(i.RCC_AHB1PeriphClockCmd)
    RCC_APB1PeriphClockCmd                   0x08003a7d   Thumb Code    26  stm32f4xx_rcc.o(i.RCC_APB1PeriphClockCmd)
    RCC_APB1PeriphResetCmd                   0x08003a9d   Thumb Code    26  stm32f4xx_rcc.o(i.RCC_APB1PeriphResetCmd)
    RCC_APB2PeriphClockCmd                   0x08003abd   Thumb Code    26  stm32f4xx_rcc.o(i.RCC_APB2PeriphClockCmd)
    RCC_APB2PeriphResetCmd                   0x08003add   Thumb Code    26  stm32f4xx_rcc.o(i.RCC_APB2PeriphResetCmd)
    RCC_GetClocksFreq                        0x08003afd   Thumb Code   214  stm32f4xx_rcc.o(i.RCC_GetClocksFreq)
    RC_Init                                  0x08003be5   Thumb Code   312  dr16.o(i.RC_Init)
    SPI5_ReadWriteByte                       0x08003df1   Thumb Code    50  spi.o(i.SPI5_ReadWriteByte)
    SPI_Cmd                                  0x08003e29   Thumb Code    24  stm32f4xx_spi.o(i.SPI_Cmd)
    SPI_GPIO_InitConfig                      0x08003e41   Thumb Code   216  spi.o(i.SPI_GPIO_InitConfig)
    SPI_I2S_GetFlagStatus                    0x08003f21   Thumb Code    18  stm32f4xx_spi.o(i.SPI_I2S_GetFlagStatus)
    SPI_I2S_ReceiveData                      0x08003f33   Thumb Code     6  stm32f4xx_spi.o(i.SPI_I2S_ReceiveData)
    SPI_I2S_SendData                         0x08003f39   Thumb Code     4  stm32f4xx_spi.o(i.SPI_I2S_SendData)
    SPI_Init                                 0x08003f3d   Thumb Code    60  stm32f4xx_spi.o(i.SPI_Init)
    SYSCFG_EXTILineConfig                    0x08003f79   Thumb Code    60  stm32f4xx_syscfg.o(i.SYSCFG_EXTILineConfig)
    Severo_Init                              0x080040d9   Thumb Code   152  severo.o(i.Severo_Init)
    Shoot_Allow                              0x08004179   Thumb Code    14  severo.o(i.Shoot_Allow)
    Shoot_Forbid                             0x08004191   Thumb Code    14  severo.o(i.Shoot_Forbid)
    Shoot_Forbid1                            0x080041a9   Thumb Code    14  severo.o(i.Shoot_Forbid1)
    Shoot_Init                               0x080041c1   Thumb Code    26  shoot.o(i.Shoot_Init)
    SysTick_CLKSourceConfig                  0x080041e5   Thumb Code    40  misc.o(i.SysTick_CLKSourceConfig)
    SysTick_Handler                          0x0800420d   Thumb Code    16  stm32f4xx_it.o(i.SysTick_Handler)
    SystemInit                               0x0800421d   Thumb Code    88  system_stm32f4xx.o(i.SystemInit)
    TIM2_IRQHandler                          0x08004285   Thumb Code    32  tim2.o(i.TIM2_IRQHandler)
    TIM7_IRQHandler                          0x080042a9   Thumb Code   196  general.o(i.TIM7_IRQHandler)
    TIM_ARRPreloadConfig                     0x08004391   Thumb Code    24  stm32f4xx_tim.o(i.TIM_ARRPreloadConfig)
    TIM_ClearITPendingBit                    0x080043a9   Thumb Code     6  stm32f4xx_tim.o(i.TIM_ClearITPendingBit)
    TIM_Cmd                                  0x080043af   Thumb Code    24  stm32f4xx_tim.o(i.TIM_Cmd)
    TIM_GetITStatus                          0x080043c7   Thumb Code    34  stm32f4xx_tim.o(i.TIM_GetITStatus)
    TIM_ITConfig                             0x080043e9   Thumb Code    18  stm32f4xx_tim.o(i.TIM_ITConfig)
    TIM_OC1Init                              0x080043fd   Thumb Code   114  stm32f4xx_tim.o(i.TIM_OC1Init)
    TIM_OC1PreloadConfig                     0x08004479   Thumb Code    18  stm32f4xx_tim.o(i.TIM_OC1PreloadConfig)
    TIM_OC4Init                              0x0800448d   Thumb Code   112  stm32f4xx_tim.o(i.TIM_OC4Init)
    TIM_OC4PreloadConfig                     0x08004505   Thumb Code    26  stm32f4xx_tim.o(i.TIM_OC4PreloadConfig)
    TIM_SetCompare1                          0x0800451f   Thumb Code     4  stm32f4xx_tim.o(i.TIM_SetCompare1)
    TIM_SetCompare4                          0x08004523   Thumb Code     4  stm32f4xx_tim.o(i.TIM_SetCompare4)
    TIM_TimeBaseInit                         0x08004529   Thumb Code   104  stm32f4xx_tim.o(i.TIM_TimeBaseInit)
    Tick_TIM7_Init                           0x080045ad   Thumb Code    90  general.o(i.Tick_TIM7_Init)
    UART8_IRQHandler                         0x0800460d   Thumb Code    92  usart.o(i.UART8_IRQHandler)
    USART1_IRQHandler                        0x08004679   Thumb Code   200  dr16.o(i.USART1_IRQHandler)
    USART3_IRQHandler                        0x08004755   Thumb Code    92  usart.o(i.USART3_IRQHandler)
    USART3_Send_NUC                          0x080047c1   Thumb Code   518  usart.o(i.USART3_Send_NUC)
    USART6_IRQHandler                        0x08004a15   Thumb Code    34  usart.o(i.USART6_IRQHandler)
    USART6_Init                              0x08004a3d   Thumb Code   172  usart.o(i.USART6_Init)
    USART8_Init                              0x08004af1   Thumb Code   454  usart.o(i.USART8_Init)
    USART8_Send_Task                         0x08004cd5   Thumb Code   158  usart.o(i.USART8_Send_Task)
    USART_ClearFlag                          0x08004d85   Thumb Code    18  stm32f4xx_usart.o(i.USART_ClearFlag)
    USART_Cmd                                0x08004d97   Thumb Code    24  stm32f4xx_usart.o(i.USART_Cmd)
    USART_DMACmd                             0x08004daf   Thumb Code    18  stm32f4xx_usart.o(i.USART_DMACmd)
    USART_DeInit                             0x08004dc1   Thumb Code   206  stm32f4xx_usart.o(i.USART_DeInit)
    USART_GetFlagStatus                      0x08004eb1   Thumb Code    26  stm32f4xx_usart.o(i.USART_GetFlagStatus)
    USART_GetITStatus                        0x08004ecb   Thumb Code    84  stm32f4xx_usart.o(i.USART_GetITStatus)
    USART_ITConfig                           0x08004f1f   Thumb Code    74  stm32f4xx_usart.o(i.USART_ITConfig)
    USART_Init                               0x08004f69   Thumb Code   204  stm32f4xx_usart.o(i.USART_Init)
    USART_ReceiveData                        0x0800503d   Thumb Code    10  stm32f4xx_usart.o(i.USART_ReceiveData)
    USART_SendData                           0x08005047   Thumb Code     8  stm32f4xx_usart.o(i.USART_SendData)
    Up_To_Down_Decode_Task                   0x08005051   Thumb Code   246  usart.o(i.Up_To_Down_Decode_Task)
    UsageFault_Handler                       0x08005161   Thumb Code     4  stm32f4xx_it.o(i.UsageFault_Handler)
    Y_Swing                                  0x08005165   Thumb Code    98  ptz.o(i.Y_Swing)
    __hardfp_fabs                            0x080051e1   Thumb Code    20  fabs.o(i.__hardfp_fabs)
    _sys_exit                                0x080051f5   Thumb Code     4  usart.o(i._sys_exit)
    bit32TObit8                              0x080051f9   Thumb Code    12  usart.o(i.bit32TObit8)
    delay_init                               0x08005205   Thumb Code    58  delay.o(i.delay_init)
    delay_ms                                 0x08005249   Thumb Code    60  delay.o(i.delay_ms)
    delay_us                                 0x08005289   Thumb Code    68  delay.o(i.delay_us)
    fputc                                    0x080052d1   Thumb Code    32  usart.o(i.fputc)
    int8ToShort                              0x080052f5   Thumb Code    24  usart.o(i.int8ToShort)
    main                                     0x0800530d   Thumb Code    28  main.o(i.main)
    pvPortMalloc                             0x080057d5   Thumb Code   262  heap_4.o(i.pvPortMalloc)
    pxPortInitialiseStack                    0x08005925   Thumb Code    38  port.o(i.pxPortInitialiseStack)
    shortToint8                              0x08005951   Thumb Code    12  usart.o(i.shortToint8)
    shortTou8                                0x0800595d   Thumb Code    12  usart.o(i.shortTou8)
    startTask                                0x08005969   Thumb Code    24  app_task.o(i.startTask)
    start_task                               0x08005995   Thumb Code   166  app_task.o(i.start_task)
    u8ToShort                                0x08005b01   Thumb Code    24  usart.o(i.u8ToShort)
    ulTaskNotifyTake                         0x08005b19   Thumb Code   108  tasks.o(i.ulTaskNotifyTake)
    uxListRemove                             0x08005b8d   Thumb Code    40  list.o(i.uxListRemove)
    vListInitialise                          0x08005bb5   Thumb Code    26  list.o(i.vListInitialise)
    vListInitialiseItem                      0x08005bcf   Thumb Code     6  list.o(i.vListInitialiseItem)
    vListInsert                              0x08005bd5   Thumb Code    52  list.o(i.vListInsert)
    vListInsertEnd                           0x08005c09   Thumb Code    24  list.o(i.vListInsertEnd)
    vPortEnterCritical                       0x08005c21   Thumb Code    68  port.o(i.vPortEnterCritical)
    vPortExitCritical                        0x08005ca5   Thumb Code    48  port.o(i.vPortExitCritical)
    vPortFree                                0x08005d11   Thumb Code   120  heap_4.o(i.vPortFree)
    vPortSetupTimerInterrupt                 0x08005dc5   Thumb Code    26  port.o(i.vPortSetupTimerInterrupt)
    vPortValidateInterruptPriority           0x08005de5   Thumb Code    86  port.o(i.vPortValidateInterruptPriority)
    vTaskDelay                               0x08005e81   Thumb Code    72  tasks.o(i.vTaskDelay)
    vTaskDelete                              0x08005ef9   Thumb Code   192  tasks.o(i.vTaskDelete)
    vTaskNotifyGiveFromISR                   0x08006009   Thumb Code   194  tasks.o(i.vTaskNotifyGiveFromISR)
    vTaskStartScheduler                      0x0800610d   Thumb Code   102  tasks.o(i.vTaskStartScheduler)
    vTaskSuspendAll                          0x080061bd   Thumb Code    12  tasks.o(i.vTaskSuspendAll)
    vTaskSwitchContext                       0x080061cd   Thumb Code   162  tasks.o(i.vTaskSwitchContext)
    xPortStartScheduler                      0x080062b9   Thumb Code   258  port.o(i.xPortStartScheduler)
    xPortSysTickHandler                      0x08006411   Thumb Code    46  port.o(i.xPortSysTickHandler)
    xTaskCreate                              0x08006445   Thumb Code    96  tasks.o(i.xTaskCreate)
    xTaskGetSchedulerState                   0x080064a5   Thumb Code    24  tasks.o(i.xTaskGetSchedulerState)
    xTaskIncrementTick                       0x080064c5   Thumb Code   272  tasks.o(i.xTaskIncrementTick)
    xTaskResumeAll                           0x08006629   Thumb Code   214  tasks.o(i.xTaskResumeAll)
    __aeabi_d2f                              0x0800674d   Thumb Code     0  d2f.o(x$fpl$d2f)
    _d2f                                     0x0800674d   Thumb Code    98  d2f.o(x$fpl$d2f)
    __aeabi_dadd                             0x080067b1   Thumb Code     0  daddsub_clz.o(x$fpl$dadd)
    _dadd                                    0x080067b1   Thumb Code   332  daddsub_clz.o(x$fpl$dadd)
    __fpl_dcmp_Inf                           0x08006901   Thumb Code    24  dcmpi.o(x$fpl$dcmpinf)
    __aeabi_cdcmpeq                          0x08006919   Thumb Code     0  deqf.o(x$fpl$deqf)
    _dcmpeq                                  0x08006919   Thumb Code   120  deqf.o(x$fpl$deqf)
    __aeabi_i2d                              0x08006991   Thumb Code     0  dflt_clz.o(x$fpl$dflt)
    _dflt                                    0x08006991   Thumb Code    46  dflt_clz.o(x$fpl$dflt)
    __aeabi_cdcmple                          0x080069c1   Thumb Code     0  dleqf.o(x$fpl$dleqf)
    _dcmple                                  0x080069c1   Thumb Code   120  dleqf.o(x$fpl$dleqf)
    __fpl_dcmple_InfNaN                      0x08006a23   Thumb Code     0  dleqf.o(x$fpl$dleqf)
    __fpl_dnaninf                            0x08006a39   Thumb Code   156  dnaninf.o(x$fpl$dnaninf)
    __fpl_dretinf                            0x08006ad5   Thumb Code    12  dretinf.o(x$fpl$dretinf)
    __aeabi_cdrcmple                         0x08006ae1   Thumb Code     0  drleqf.o(x$fpl$drleqf)
    _drcmple                                 0x08006ae1   Thumb Code   108  drleqf.o(x$fpl$drleqf)
    __aeabi_dsub                             0x08006b4d   Thumb Code     0  daddsub_clz.o(x$fpl$dsub)
    _dsub                                    0x08006b4d   Thumb Code   464  daddsub_clz.o(x$fpl$dsub)
    __aeabi_f2d                              0x08006d21   Thumb Code     0  f2d.o(x$fpl$f2d)
    _f2d                                     0x08006d21   Thumb Code    86  f2d.o(x$fpl$f2d)
    __aeabi_ul2f                             0x08006d77   Thumb Code     0  ffltll_clz.o(x$fpl$ffltll)
    _ll_uto_f                                0x08006d77   Thumb Code     6  ffltll_clz.o(x$fpl$ffltll)
    __aeabi_l2f                              0x08006d7d   Thumb Code     0  ffltll_clz.o(x$fpl$ffltll)
    _ll_sto_f                                0x08006d7d   Thumb Code    90  ffltll_clz.o(x$fpl$ffltll)
    __fpl_fnaninf                            0x08006dd7   Thumb Code   140  fnaninf.o(x$fpl$fnaninf)
    _fp_init                                 0x08006e63   Thumb Code    10  fpinit.o(x$fpl$fpinit)
    __fplib_config_fpu_vfp                   0x08006e6b   Thumb Code     0  fpinit.o(x$fpl$fpinit)
    __fplib_config_pureend_doubles           0x08006e6b   Thumb Code     0  fpinit.o(x$fpl$fpinit)
    __fpl_fretinf                            0x08006e6d   Thumb Code    10  fretinf.o(x$fpl$fretinf)
    __I$use$fp                               0x08006e76   Number         0  usenofp.o(x$fpl$usenofp)
    Region$$Table$$Base                      0x08006e8c   Number         0  anon$$obj.o(Region$$Table)
    Region$$Table$$Limit                     0x08006eac   Number         0  anon$$obj.o(Region$$Table)
    pxCurrentTCB                             0x20000034   Data           4  tasks.o(.data)
    SystemCoreClock                          0x2000007c   Data           4  system_stm32f4xx.o(.data)
    AHBPrescTable                            0x20000080   Data          16  system_stm32f4xx.o(.data)
    NUC_Lost_Flag_Music                      0x20000090   Data           1  led.o(.data)
    CPU_RunTime                              0x20000094   Data           4  tim2.o(.data)
    NUC_Decode_Task_Handler                  0x2000009c   Data           4  app_task.o(.data)
    USART8_Send_Task_Handler                 0x200000a0   Data           4  app_task.o(.data)
    Up_To_Down_Decode_Task_Handler           0x200000a4   Data           4  app_task.o(.data)
    IMU_Get_Data_Task_Handler                0x200000a8   Data           4  app_task.o(.data)
    PTZ_Control_Task_Handler                 0x200000ac   Data           4  app_task.o(.data)
    MoCaLun_Control_Task_Handler             0x200000b0   Data           4  app_task.o(.data)
    Heart_Task_Handler                       0x200000b4   Data           4  app_task.o(.data)
    Chassis_Accel                            0x200000b8   Data           2  usart.o(.data)
    Swing_Flag                               0x200000ba   Data           1  usart.o(.data)
    __stdout                                 0x200000bc   Data           4  usart.o(.data)
    Yaw_Angle                                0x200000c0   Data           4  usart.o(.data)
    Pitch_Angle                              0x200000c4   Data           2  usart.o(.data)
    Pitch_Speed                              0x200000c6   Data           2  usart.o(.data)
    Yaw_Speed                                0x200000c8   Data           2  usart.o(.data)
    Output_On                                0x200000ca   Data           2  usart.o(.data)
    NUC_Get_Time                             0x200000cc   Data           4  usart.o(.data)
    Last_Pitch_Angle                         0x200000d0   Data           2  usart.o(.data)
    PTZ_Mode                                 0x200000d4   Data           1  ptz.o(.data)
    Lost_Angle                               0x200000d8   Data           4  ptz.o(.data)
    pitch                                    0x200000dc   Data           4  ptz.o(.data)
    yaw                                      0x200000e0   Data           4  ptz.o(.data)
    PITCH_UP                                 0x200000e4   Data           4  ptz.o(.data)
    PITCH_DOWN                               0x200000e8   Data           4  ptz.o(.data)
    Yaw_Motor_205_Number                     0x200000fc   Data           4  can.o(.data)
    Yaw_Real_MechanicalAngle                 0x20000100   Data           8  can.o(.data)
    Pitch_Real_MechanicalAngle               0x20000108   Data           8  can.o(.data)
    Yaw_Real_Angle                           0x20000110   Data           4  can.o(.data)
    Yaw_Send_NUC_Angle                       0x20000114   Data           4  can.o(.data)
    PTZ_MPU_Ignore                           0x2000013c   Data           2  imu.o(.data)
    Yaw_Send_NUC_Angle_IMU                   0x20000140   Data           4  imu.o(.data)
    DR16_Flash_Val                           0x20000144   Data           2  dr16.o(.data)
    Fricion_Speed_203                        0x20000148   Data           4  shoot.o(.data)
    Fricion_Speed_204                        0x2000014c   Data           4  shoot.o(.data)
    Shoot_Allow_PWM                          0x20000150   Data           4  severo.o(.data)
    Shoot_Forbid_PWM                         0x20000154   Data           4  severo.o(.data)
    Shoot_Forbid_PWM1                        0x20000158   Data           4  severo.o(.data)
    NUC_Lost_Time                            0x2000015c   Data           4  general.o(.data)
    Up_To_Down_TypeStruct                    0x2001244c   Data          18  usart.o(.bss)
    Down_To_Up_TypeStruct                    0x2001245e   Data          12  usart.o(.bss)
    Down_NUC_Data_TypeStruct                 0x2001246c   Data          20  usart.o(.bss)
    Up_To_DOWN_Rx                            0x20012480   Data          17  usart.o(.bss)
    Down_To_Up_Tx                            0x20012491   Data          10  usart.o(.bss)
    Usart3Rx_Info                            0x2001249b   Data          10  usart.o(.bss)
    Send_NUC                                 0x200124a5   Data          23  usart.o(.bss)
    PTZ_Init_Value                           0x200124bc   Data          20  ptz.o(.bss)
    Friction_Wheel_203                       0x200124d0   Data          10  can.o(.bss)
    Friction_Wheel_204                       0x200124da   Data          10  can.o(.bss)
    Pitch_Motor_206                          0x200124e4   Data          10  can.o(.bss)
    Yaw_Motor_205                            0x200124ee   Data          10  can.o(.bss)
    PID_Yaw_205_Mechanical                   0x200124f8   Data         104  pid.o(.bss)
    PID_Yaw_205_Speed                        0x20012560   Data         104  pid.o(.bss)
    PID_Pitch_206_Mechanical                 0x200125c8   Data         104  pid.o(.bss)
    PID_Pitch_206_Speed                      0x20012630   Data         104  pid.o(.bss)
    PID_Pitch_206_Mechanical_1               0x20012698   Data         104  pid.o(.bss)
    PID_Pitch_206_Speed_1                    0x20012700   Data         104  pid.o(.bss)
    PID_Yaw_205_Mechanical_1                 0x20012768   Data         104  pid.o(.bss)
    PID_Yaw_205_Speed_1                      0x200127d0   Data         104  pid.o(.bss)
    PID_Armor_Yaw_205_Mechanical             0x20012838   Data         104  pid.o(.bss)
    PID_Armor_Yaw_205_Speed                  0x200128a0   Data         104  pid.o(.bss)
    PID_Armor_Pitch_206_Mechanical           0x20012908   Data         104  pid.o(.bss)
    PID_Armor_Pitch_206_Speed                0x20012970   Data         104  pid.o(.bss)
    PID_Friction_Wheel_203                   0x200129d8   Data         104  pid.o(.bss)
    PID_Friction_Wheel_204                   0x20012a40   Data         104  pid.o(.bss)
    IMU_Raw_Data                             0x20012aa8   Data          20  imu.o(.bss)
    IMU_Real_Data                            0x20012ac0   Data          48  imu.o(.bss)
    IMU_Offset_Data                          0x20012af0   Data          48  imu.o(.bss)
    DBUS                                     0x20012b20   Data          22  dr16.o(.bss)
    __libspace_start                         0x20012b80   Data          96  libspace.o(.bss)
    __temporary_stack_top$libspace           0x20012be0   Data           0  libspace.o(.bss)



==============================================================================

Memory Map of the image

  Image Entry point : 0x080001ad

  Load Region LR_IROM1 (Base: 0x08000000, Size: 0x00007014, Max: 0x00200000, ABSOLUTE, COMPRESSED[0x00006ee4])

    Execution Region ER_IROM1 (Exec base: 0x08000000, Load base: 0x08000000, Size: 0x00006eac, Max: 0x00200000, ABSOLUTE)

    Exec Addr    Load Addr    Size         Type   Attr      Idx    E Section Name        Object

    0x08000000   0x08000000   0x000001ac   Data   RO            3    RESET               startup_stm32f427_437xx.o
    0x080001ac   0x080001ac   0x00000008   Code   RO         3996  * !!!main             c_w.l(__main.o)
    0x080001b4   0x080001b4   0x00000034   Code   RO         4227    !!!scatter          c_w.l(__scatter.o)
    0x080001e8   0x080001e8   0x0000005a   Code   RO         4225    !!dczerorl2         c_w.l(__dczerorl2.o)
    0x08000242   0x08000242   0x00000002   PAD
    0x08000244   0x08000244   0x0000001c   Code   RO         4229    !!handler_zi        c_w.l(__scatter_zi.o)
    0x08000260   0x08000260   0x00000000   Code   RO         3983    .ARM.Collect$$_printf_percent$$00000000  c_w.l(_printf_percent.o)
    0x08000260   0x08000260   0x00000006   Code   RO         3981    .ARM.Collect$$_printf_percent$$00000009  c_w.l(_printf_d.o)
    0x08000266   0x08000266   0x00000006   Code   RO         3980    .ARM.Collect$$_printf_percent$$00000014  c_w.l(_printf_s.o)
    0x0800026c   0x0800026c   0x00000004   Code   RO         4043    .ARM.Collect$$_printf_percent$$00000017  c_w.l(_printf_percent_end.o)
    0x08000270   0x08000270   0x00000002   Code   RO         4095    .ARM.Collect$$libinit$$00000000  c_w.l(libinit.o)
    0x08000272   0x08000272   0x00000004   Code   RO         4105    .ARM.Collect$$libinit$$00000001  c_w.l(libinit2.o)
    0x08000276   0x08000276   0x00000000   Code   RO         4108    .ARM.Collect$$libinit$$00000004  c_w.l(libinit2.o)
    0x08000276   0x08000276   0x00000000   Code   RO         4111    .ARM.Collect$$libinit$$0000000A  c_w.l(libinit2.o)
    0x08000276   0x08000276   0x00000000   Code   RO         4113    .ARM.Collect$$libinit$$0000000C  c_w.l(libinit2.o)
    0x08000276   0x08000276   0x00000000   Code   RO         4115    .ARM.Collect$$libinit$$0000000E  c_w.l(libinit2.o)
    0x08000276   0x08000276   0x00000000   Code   RO         4118    .ARM.Collect$$libinit$$00000011  c_w.l(libinit2.o)
    0x08000276   0x08000276   0x00000000   Code   RO         4120    .ARM.Collect$$libinit$$00000013  c_w.l(libinit2.o)
    0x08000276   0x08000276   0x00000000   Code   RO         4122    .ARM.Collect$$libinit$$00000015  c_w.l(libinit2.o)
    0x08000276   0x08000276   0x00000000   Code   RO         4124    .ARM.Collect$$libinit$$00000017  c_w.l(libinit2.o)
    0x08000276   0x08000276   0x00000000   Code   RO         4126    .ARM.Collect$$libinit$$00000019  c_w.l(libinit2.o)
    0x08000276   0x08000276   0x00000000   Code   RO         4128    .ARM.Collect$$libinit$$0000001B  c_w.l(libinit2.o)
    0x08000276   0x08000276   0x00000000   Code   RO         4130    .ARM.Collect$$libinit$$0000001D  c_w.l(libinit2.o)
    0x08000276   0x08000276   0x00000000   Code   RO         4132    .ARM.Collect$$libinit$$0000001F  c_w.l(libinit2.o)
    0x08000276   0x08000276   0x00000000   Code   RO         4134    .ARM.Collect$$libinit$$00000021  c_w.l(libinit2.o)
    0x08000276   0x08000276   0x00000000   Code   RO         4136    .ARM.Collect$$libinit$$00000023  c_w.l(libinit2.o)
    0x08000276   0x08000276   0x00000000   Code   RO         4138    .ARM.Collect$$libinit$$00000025  c_w.l(libinit2.o)
    0x08000276   0x08000276   0x00000000   Code   RO         4142    .ARM.Collect$$libinit$$0000002C  c_w.l(libinit2.o)
    0x08000276   0x08000276   0x00000000   Code   RO         4144    .ARM.Collect$$libinit$$0000002E  c_w.l(libinit2.o)
    0x08000276   0x08000276   0x00000000   Code   RO         4146    .ARM.Collect$$libinit$$00000030  c_w.l(libinit2.o)
    0x08000276   0x08000276   0x00000000   Code   RO         4148    .ARM.Collect$$libinit$$00000032  c_w.l(libinit2.o)
    0x08000276   0x08000276   0x00000002   Code   RO         4149    .ARM.Collect$$libinit$$00000033  c_w.l(libinit2.o)
    0x08000278   0x08000278   0x00000002   Code   RO         4177    .ARM.Collect$$libshutdown$$00000000  c_w.l(libshutdown.o)
    0x0800027a   0x0800027a   0x00000000   Code   RO         4191    .ARM.Collect$$libshutdown$$00000002  c_w.l(libshutdown2.o)
    0x0800027a   0x0800027a   0x00000000   Code   RO         4193    .ARM.Collect$$libshutdown$$00000004  c_w.l(libshutdown2.o)
    0x0800027a   0x0800027a   0x00000000   Code   RO         4196    .ARM.Collect$$libshutdown$$00000007  c_w.l(libshutdown2.o)
    0x0800027a   0x0800027a   0x00000000   Code   RO         4199    .ARM.Collect$$libshutdown$$0000000A  c_w.l(libshutdown2.o)
    0x0800027a   0x0800027a   0x00000000   Code   RO         4201    .ARM.Collect$$libshutdown$$0000000C  c_w.l(libshutdown2.o)
    0x0800027a   0x0800027a   0x00000000   Code   RO         4204    .ARM.Collect$$libshutdown$$0000000F  c_w.l(libshutdown2.o)
    0x0800027a   0x0800027a   0x00000002   Code   RO         4205    .ARM.Collect$$libshutdown$$00000010  c_w.l(libshutdown2.o)
    0x0800027c   0x0800027c   0x00000000   Code   RO         4030    .ARM.Collect$$rtentry$$00000000  c_w.l(__rtentry.o)
    0x0800027c   0x0800027c   0x00000000   Code   RO         4058    .ARM.Collect$$rtentry$$00000002  c_w.l(__rtentry2.o)
    0x0800027c   0x0800027c   0x00000006   Code   RO         4070    .ARM.Collect$$rtentry$$00000004  c_w.l(__rtentry4.o)
    0x08000282   0x08000282   0x00000000   Code   RO         4060    .ARM.Collect$$rtentry$$00000009  c_w.l(__rtentry2.o)
    0x08000282   0x08000282   0x00000004   Code   RO         4061    .ARM.Collect$$rtentry$$0000000A  c_w.l(__rtentry2.o)
    0x08000286   0x08000286   0x00000000   Code   RO         4063    .ARM.Collect$$rtentry$$0000000C  c_w.l(__rtentry2.o)
    0x08000286   0x08000286   0x00000008   Code   RO         4064    .ARM.Collect$$rtentry$$0000000D  c_w.l(__rtentry2.o)
    0x0800028e   0x0800028e   0x00000002   Code   RO         4099    .ARM.Collect$$rtexit$$00000000  c_w.l(rtexit.o)
    0x08000290   0x08000290   0x00000000   Code   RO         4151    .ARM.Collect$$rtexit$$00000002  c_w.l(rtexit2.o)
    0x08000290   0x08000290   0x00000004   Code   RO         4152    .ARM.Collect$$rtexit$$00000003  c_w.l(rtexit2.o)
    0x08000294   0x08000294   0x00000006   Code   RO         4153    .ARM.Collect$$rtexit$$00000004  c_w.l(rtexit2.o)
    0x0800029a   0x0800029a   0x00000002   PAD
    0x0800029c   0x0800029c   0x000000b6   Code   RO         2017    .emb_text           port.o
    0x08000352   0x08000352   0x00000002   PAD
    0x08000354   0x08000354   0x00000040   Code   RO            4    .text               startup_stm32f427_437xx.o
    0x08000394   0x08000394   0x00000002   Code   RO         3941    .text               c_w.l(use_no_semi_2.o)
    0x08000396   0x08000396   0x00000048   Code   RO         3943    .text               c_w.l(llsdiv.o)
    0x080003de   0x080003de   0x00000002   PAD
    0x080003e0   0x080003e0   0x00000018   Code   RO         3949    .text               c_w.l(noretval__2printf.o)
    0x080003f8   0x080003f8   0x00000068   Code   RO         3953    .text               c_w.l(__printf.o)
    0x08000460   0x08000460   0x00000052   Code   RO         3955    .text               c_w.l(_printf_str.o)
    0x080004b2   0x080004b2   0x00000002   PAD
    0x080004b4   0x080004b4   0x00000078   Code   RO         3957    .text               c_w.l(_printf_dec.o)
    0x0800052c   0x0800052c   0x00000064   Code   RO         3990    .text               c_w.l(rt_memcpy_w.o)
    0x08000590   0x08000590   0x00000010   Code   RO         3992    .text               c_w.l(aeabi_memset.o)
    0x080005a0   0x080005a0   0x00000006   Code   RO         3994    .text               c_w.l(heapauxi.o)
    0x080005a6   0x080005a6   0x00000002   Code   RO         4028    .text               c_w.l(use_no_semi.o)
    0x080005a8   0x080005a8   0x000000ee   Code   RO         4031    .text               c_w.l(lludivv7m.o)
    0x08000696   0x08000696   0x000000b2   Code   RO         4033    .text               c_w.l(_printf_intcommon.o)
    0x08000748   0x08000748   0x00000030   Code   RO         4035    .text               c_w.l(_printf_char_common.o)
    0x08000778   0x08000778   0x0000002c   Code   RO         4039    .text               c_w.l(_printf_char.o)
    0x080007a4   0x080007a4   0x00000024   Code   RO         4041    .text               c_w.l(_printf_char_file.o)
    0x080007c8   0x080007c8   0x00000044   Code   RO         4044    .text               c_w.l(rt_memclr.o)
    0x0800080c   0x0800080c   0x00000008   Code   RO         4078    .text               c_w.l(ferror.o)
    0x08000814   0x08000814   0x0000004e   Code   RO         4082    .text               c_w.l(rt_memclr_w.o)
    0x08000862   0x08000862   0x0000004a   Code   RO         4084    .text               c_w.l(sys_stackheap_outer.o)
    0x080008ac   0x080008ac   0x00000012   Code   RO         4088    .text               c_w.l(exit.o)
    0x080008be   0x080008be   0x00000002   PAD
    0x080008c0   0x080008c0   0x00000008   Code   RO         4096    .text               c_w.l(libspace.o)
    0x080008c8   0x080008c8   0x0000002c   Code   RO         2948    i.BaseHardwork_Init  main.o
    0x080008f4   0x080008f4   0x000000a4   Code   RO         3227    i.Beep_Init         beep.o
    0x08000998   0x08000998   0x00000010   Code   RO         3228    i.Beep_OFF          beep.o
    0x080009a8   0x080009a8   0x00000010   Code   RO         3229    i.Beep_ON           beep.o
    0x080009b8   0x080009b8   0x00000004   Code   RO         3091    i.BusFault_Handler  stm32f4xx_it.o
    0x080009bc   0x080009bc   0x00000124   Code   RO         3607    i.CAN1_Init         can.o
    0x08000ae0   0x08000ae0   0x000000e8   Code   RO         3608    i.CAN1_RX0_IRQHandler  can.o
    0x08000bc8   0x08000bc8   0x0000007c   Code   RO         3609    i.CAN1_TX_Friction  can.o
    0x08000c44   0x08000c44   0x00000024   Code   RO         3610    i.CAN1_TX_IRQHandler  can.o
    0x08000c68   0x08000c68   0x0000007c   Code   RO         3611    i.CAN1_TX_PTZ       can.o
    0x08000ce4   0x08000ce4   0x000000a8   Code   RO          169    i.CAN_ClearITPendingBit  stm32f4xx_can.o
    0x08000d8c   0x08000d8c   0x00000038   Code   RO          171    i.CAN_DeInit        stm32f4xx_can.o
    0x08000dc4   0x08000dc4   0x00000108   Code   RO          173    i.CAN_FilterInit    stm32f4xx_can.o
    0x08000ecc   0x08000ecc   0x00000120   Code   RO          175    i.CAN_GetITStatus   stm32f4xx_can.o
    0x08000fec   0x08000fec   0x00000012   Code   RO          179    i.CAN_ITConfig      stm32f4xx_can.o
    0x08000ffe   0x08000ffe   0x00000114   Code   RO          180    i.CAN_Init          stm32f4xx_can.o
    0x08001112   0x08001112   0x000000f0   Code   RO          183    i.CAN_Receive       stm32f4xx_can.o
    0x08001202   0x08001202   0x00000020   Code   RO          186    i.CAN_StructInit    stm32f4xx_can.o
    0x08001222   0x08001222   0x00000126   Code   RO          188    i.CAN_Transmit      stm32f4xx_can.o
    0x08001348   0x08001348   0x00000012   Code   RO          191    i.CheckITStatus     stm32f4xx_can.o
    0x0800135a   0x0800135a   0x00000002   PAD
    0x0800135c   0x0800135c   0x0000003c   Code   RO         3381    i.DMA1_Stream0_IRQHandler  usart.o
    0x08001398   0x08001398   0x00000030   Code   RO         3382    i.DMA1_Stream3_IRQHandler  usart.o
    0x080013c8   0x080013c8   0x00000034   Code   RO          330    i.DMA_ClearFlag     stm32f4xx_dma.o
    0x080013fc   0x080013fc   0x00000034   Code   RO          331    i.DMA_ClearITPendingBit  stm32f4xx_dma.o
    0x08001430   0x08001430   0x00000016   Code   RO          332    i.DMA_Cmd           stm32f4xx_dma.o
    0x08001446   0x08001446   0x00000002   PAD
    0x08001448   0x08001448   0x00000158   Code   RO          333    i.DMA_DeInit        stm32f4xx_dma.o
    0x080015a0   0x080015a0   0x00000016   Code   RO          334    i.DMA_DoubleBufferModeCmd  stm32f4xx_dma.o
    0x080015b6   0x080015b6   0x00000018   Code   RO          335    i.DMA_DoubleBufferModeConfig  stm32f4xx_dma.o
    0x080015ce   0x080015ce   0x00000008   Code   RO          338    i.DMA_GetCurrDataCounter  stm32f4xx_dma.o
    0x080015d6   0x080015d6   0x00000014   Code   RO          339    i.DMA_GetCurrentMemoryTarget  stm32f4xx_dma.o
    0x080015ea   0x080015ea   0x00000002   PAD
    0x080015ec   0x080015ec   0x00000064   Code   RO          342    i.DMA_GetITStatus   stm32f4xx_dma.o
    0x08001650   0x08001650   0x0000003a   Code   RO          343    i.DMA_ITConfig      stm32f4xx_dma.o
    0x0800168a   0x0800168a   0x00000002   PAD
    0x0800168c   0x0800168c   0x00000058   Code   RO          344    i.DMA_Init          stm32f4xx_dma.o
    0x080016e4   0x080016e4   0x00000004   Code   RO          347    i.DMA_SetCurrDataCounter  stm32f4xx_dma.o
    0x080016e8   0x080016e8   0x00000014   Code   RO         3780    i.DR16_InitConfig   dr16.o
    0x080016fc   0x080016fc   0x00000002   Code   RO         3092    i.DebugMon_Handler  stm32f4xx_it.o
    0x080016fe   0x080016fe   0x00000002   PAD
    0x08001700   0x08001700   0x00000040   Code   RO         3703    i.EXTI9_5_IRQHandler  imu.o
    0x08001740   0x08001740   0x0000000c   Code   RO          459    i.EXTI_ClearITPendingBit  stm32f4xx_exti.o
    0x0800174c   0x0800174c   0x00000018   Code   RO          463    i.EXTI_GetITStatus  stm32f4xx_exti.o
    0x08001764   0x08001764   0x00000094   Code   RO          464    i.EXTI_Init         stm32f4xx_exti.o
    0x080017f8   0x080017f8   0x00000090   Code   RO          521    i.GPIO_Init         stm32f4xx_gpio.o
    0x08001888   0x08001888   0x00000046   Code   RO          522    i.GPIO_PinAFConfig  stm32f4xx_gpio.o
    0x080018ce   0x080018ce   0x00000004   Code   RO          528    i.GPIO_ResetBits    stm32f4xx_gpio.o
    0x080018d2   0x080018d2   0x00000004   Code   RO          529    i.GPIO_SetBits      stm32f4xx_gpio.o
    0x080018d6   0x080018d6   0x00000008   Code   RO          531    i.GPIO_ToggleBits   stm32f4xx_gpio.o
    0x080018de   0x080018de   0x00000004   Code   RO         3093    i.HardFault_Handler  stm32f4xx_it.o
    0x080018e2   0x080018e2   0x00000002   PAD
    0x080018e4   0x080018e4   0x00000020   Code   RO         3187    i.Heart_Task        led.o
    0x08001904   0x08001904   0x00000204   Code   RO         3704    i.IMU_Get_Data      imu.o
    0x08001b08   0x08001b08   0x0000001c   Code   RO         3705    i.IMU_Get_Data_Task  imu.o
    0x08001b24   0x08001b24   0x00000074   Code   RO         3706    i.IMU_Init          imu.o
    0x08001b98   0x08001b98   0x0000007c   Code   RO         3188    i.LED_Init          led.o
    0x08001c14   0x08001c14   0x00000040   Code   RO         3270    i.Laser_InitConfig  laser.o
    0x08001c54   0x08001c54   0x000000ec   Code   RO         3707    i.MPU6500_Gyro_Cali  imu.o
    0x08001d40   0x08001d40   0x0000002c   Code   RO         3708    i.MPU6500_Read_Reg  imu.o
    0x08001d6c   0x08001d6c   0x00000036   Code   RO         3709    i.MPU6500_Read_Regs  imu.o
    0x08001da2   0x08001da2   0x00000002   PAD
    0x08001da4   0x08001da4   0x0000002c   Code   RO         3710    i.MPU6500_Write_Reg  imu.o
    0x08001dd0   0x08001dd0   0x00000084   Code   RO         3711    i.MPU_6500_Interrupt_InitConfig  imu.o
    0x08001e54   0x08001e54   0x00000004   Code   RO         3094    i.MemManage_Handler  stm32f4xx_it.o
    0x08001e58   0x08001e58   0x0000006c   Code   RO         3824    i.MoCaLun_Close_3508  shoot.o
    0x08001ec4   0x08001ec4   0x00000088   Code   RO         3825    i.MoCaLun_Control_Task  shoot.o
    0x08001f4c   0x08001f4c   0x00000078   Code   RO         3826    i.MoCaLun_Open_3508  shoot.o
    0x08001fc4   0x08001fc4   0x00000002   Code   RO         3095    i.NMI_Handler       stm32f4xx_it.o
    0x08001fc6   0x08001fc6   0x00000002   PAD
    0x08001fc8   0x08001fc8   0x00000190   Code   RO         3383    i.NUC_Decode_Task   usart.o
    0x08002158   0x08002158   0x000001ec   Code   RO         3384    i.NUC_Init          usart.o
    0x08002344   0x08002344   0x00000078   Code   RO           12    i.NVIC_Init         misc.o
    0x080023bc   0x080023bc   0x00000014   Code   RO           13    i.NVIC_PriorityGroupConfig  misc.o
    0x080023d0   0x080023d0   0x00000b28   Code   RO         3671    i.PID_Init          pid.o
    0x08002ef8   0x08002ef8   0x00000170   Code   RO         3544    i.PTZ_Auto_No_Limit  ptz.o
    0x08003068   0x08003068   0x000001a4   Code   RO         3545    i.PTZ_Control_Hand  ptz.o
    0x0800320c   0x0800320c   0x0000008c   Code   RO         3546    i.PTZ_Control_Task  ptz.o
    0x08003298   0x08003298   0x000000c0   Code   RO         3547    i.PTZ_Init_PITCH    ptz.o
    0x08003358   0x08003358   0x000000f0   Code   RO         3548    i.PTZ_Init_Yaw      ptz.o
    0x08003448   0x08003448   0x0000010c   Code   RO         3549    i.P_Swing           ptz.o
    0x08003554   0x08003554   0x00000300   Code   RO         3672    i.Pid_Calc          pid.o
    0x08003854   0x08003854   0x00000184   Code   RO         3612    i.Position_Direction_Judge  can.o
    0x080039d8   0x080039d8   0x00000084   Code   RO         3613    i.Position_Direction_Judge_Pitch  can.o
    0x08003a5c   0x08003a5c   0x00000020   Code   RO          618    i.RCC_AHB1PeriphClockCmd  stm32f4xx_rcc.o
    0x08003a7c   0x08003a7c   0x00000020   Code   RO          627    i.RCC_APB1PeriphClockCmd  stm32f4xx_rcc.o
    0x08003a9c   0x08003a9c   0x00000020   Code   RO          629    i.RCC_APB1PeriphResetCmd  stm32f4xx_rcc.o
    0x08003abc   0x08003abc   0x00000020   Code   RO          630    i.RCC_APB2PeriphClockCmd  stm32f4xx_rcc.o
    0x08003adc   0x08003adc   0x00000020   Code   RO          632    i.RCC_APB2PeriphResetCmd  stm32f4xx_rcc.o
    0x08003afc   0x08003afc   0x000000e8   Code   RO          639    i.RCC_GetClocksFreq  stm32f4xx_rcc.o
    0x08003be4   0x08003be4   0x0000014c   Code   RO         3781    i.RC_Init           dr16.o
    0x08003d30   0x08003d30   0x000000c0   Code   RO         3782    i.SBUS_TO_RC        dr16.o
    0x08003df0   0x08003df0   0x00000038   Code   RO         3290    i.SPI5_ReadWriteByte  spi.o
    0x08003e28   0x08003e28   0x00000018   Code   RO         1764    i.SPI_Cmd           stm32f4xx_spi.o
    0x08003e40   0x08003e40   0x000000e0   Code   RO         3291    i.SPI_GPIO_InitConfig  spi.o
    0x08003f20   0x08003f20   0x00000012   Code   RO         1772    i.SPI_I2S_GetFlagStatus  stm32f4xx_spi.o
    0x08003f32   0x08003f32   0x00000006   Code   RO         1775    i.SPI_I2S_ReceiveData  stm32f4xx_spi.o
    0x08003f38   0x08003f38   0x00000004   Code   RO         1776    i.SPI_I2S_SendData  stm32f4xx_spi.o
    0x08003f3c   0x08003f3c   0x0000003c   Code   RO         1777    i.SPI_Init          stm32f4xx_spi.o
    0x08003f78   0x08003f78   0x00000040   Code   RO          955    i.SYSCFG_EXTILineConfig  stm32f4xx_syscfg.o
    0x08003fb8   0x08003fb8   0x00000120   Code   RO         3150    i.SetSysClock       system_stm32f4xx.o
    0x080040d8   0x080040d8   0x000000a0   Code   RO         3868    i.Severo_Init       severo.o
    0x08004178   0x08004178   0x00000018   Code   RO         3869    i.Shoot_Allow       severo.o
    0x08004190   0x08004190   0x00000018   Code   RO         3870    i.Shoot_Forbid      severo.o
    0x080041a8   0x080041a8   0x00000018   Code   RO         3871    i.Shoot_Forbid1     severo.o
    0x080041c0   0x080041c0   0x00000024   Code   RO         3827    i.Shoot_Init        shoot.o
    0x080041e4   0x080041e4   0x00000028   Code   RO           16    i.SysTick_CLKSourceConfig  misc.o
    0x0800420c   0x0800420c   0x00000010   Code   RO         3096    i.SysTick_Handler   stm32f4xx_it.o
    0x0800421c   0x0800421c   0x00000068   Code   RO         3152    i.SystemInit        system_stm32f4xx.o
    0x08004284   0x08004284   0x00000024   Code   RO         3316    i.TIM2_IRQHandler   tim2.o
    0x080042a8   0x080042a8   0x000000e8   Code   RO         3909    i.TIM7_IRQHandler   general.o
    0x08004390   0x08004390   0x00000018   Code   RO         1012    i.TIM_ARRPreloadConfig  stm32f4xx_tim.o
    0x080043a8   0x080043a8   0x00000006   Code   RO         1019    i.TIM_ClearITPendingBit  stm32f4xx_tim.o
    0x080043ae   0x080043ae   0x00000018   Code   RO         1024    i.TIM_Cmd           stm32f4xx_tim.o
    0x080043c6   0x080043c6   0x00000022   Code   RO         1045    i.TIM_GetITStatus   stm32f4xx_tim.o
    0x080043e8   0x080043e8   0x00000012   Code   RO         1049    i.TIM_ITConfig      stm32f4xx_tim.o
    0x080043fa   0x080043fa   0x00000002   PAD
    0x080043fc   0x080043fc   0x0000007c   Code   RO         1053    i.TIM_OC1Init       stm32f4xx_tim.o
    0x08004478   0x08004478   0x00000012   Code   RO         1056    i.TIM_OC1PreloadConfig  stm32f4xx_tim.o
    0x0800448a   0x0800448a   0x00000002   PAD
    0x0800448c   0x0800448c   0x00000078   Code   RO         1068    i.TIM_OC4Init       stm32f4xx_tim.o
    0x08004504   0x08004504   0x0000001a   Code   RO         1070    i.TIM_OC4PreloadConfig  stm32f4xx_tim.o
    0x0800451e   0x0800451e   0x00000004   Code   RO         1086    i.TIM_SetCompare1   stm32f4xx_tim.o
    0x08004522   0x08004522   0x00000004   Code   RO         1089    i.TIM_SetCompare4   stm32f4xx_tim.o
    0x08004526   0x08004526   0x00000002   PAD
    0x08004528   0x08004528   0x00000084   Code   RO         1096    i.TIM_TimeBaseInit  stm32f4xx_tim.o
    0x080045ac   0x080045ac   0x00000060   Code   RO         3910    i.Tick_TIM7_Init    general.o
    0x0800460c   0x0800460c   0x0000006c   Code   RO         3385    i.UART8_IRQHandler  usart.o
    0x08004678   0x08004678   0x000000dc   Code   RO         3783    i.USART1_IRQHandler  dr16.o
    0x08004754   0x08004754   0x0000006c   Code   RO         3386    i.USART3_IRQHandler  usart.o
    0x080047c0   0x080047c0   0x00000254   Code   RO         3387    i.USART3_Send_NUC   usart.o
    0x08004a14   0x08004a14   0x00000028   Code   RO         3388    i.USART6_IRQHandler  usart.o
    0x08004a3c   0x08004a3c   0x000000b4   Code   RO         3389    i.USART6_Init       usart.o
    0x08004af0   0x08004af0   0x000001e4   Code   RO         3390    i.USART8_Init       usart.o
    0x08004cd4   0x08004cd4   0x000000b0   Code   RO         3391    i.USART8_Send_Task  usart.o
    0x08004d84   0x08004d84   0x00000012   Code   RO         1570    i.USART_ClearFlag   stm32f4xx_usart.o
    0x08004d96   0x08004d96   0x00000018   Code   RO         1574    i.USART_Cmd         stm32f4xx_usart.o
    0x08004dae   0x08004dae   0x00000012   Code   RO         1575    i.USART_DMACmd      stm32f4xx_usart.o
    0x08004dc0   0x08004dc0   0x000000f0   Code   RO         1576    i.USART_DeInit      stm32f4xx_usart.o
    0x08004eb0   0x08004eb0   0x0000001a   Code   RO         1577    i.USART_GetFlagStatus  stm32f4xx_usart.o
    0x08004eca   0x08004eca   0x00000054   Code   RO         1578    i.USART_GetITStatus  stm32f4xx_usart.o
    0x08004f1e   0x08004f1e   0x0000004a   Code   RO         1580    i.USART_ITConfig    stm32f4xx_usart.o
    0x08004f68   0x08004f68   0x000000d4   Code   RO         1581    i.USART_Init        stm32f4xx_usart.o
    0x0800503c   0x0800503c   0x0000000a   Code   RO         1588    i.USART_ReceiveData  stm32f4xx_usart.o
    0x08005046   0x08005046   0x00000008   Code   RO         1591    i.USART_SendData    stm32f4xx_usart.o
    0x0800504e   0x0800504e   0x00000002   PAD
    0x08005050   0x08005050   0x00000110   Code   RO         3393    i.Up_To_Down_Decode_Task  usart.o
    0x08005160   0x08005160   0x00000004   Code   RO         3097    i.UsageFault_Handler  stm32f4xx_it.o
    0x08005164   0x08005164   0x0000007c   Code   RO         3550    i.Y_Swing           ptz.o
    0x080051e0   0x080051e0   0x00000014   Code   RO         4022    i.__hardfp_fabs     m_wm.l(fabs.o)
    0x080051f4   0x080051f4   0x00000004   Code   RO         3394    i._sys_exit         usart.o
    0x080051f8   0x080051f8   0x0000000c   Code   RO         3395    i.bit32TObit8       usart.o
    0x08005204   0x08005204   0x00000044   Code   RO         2884    i.delay_init        delay.o
    0x08005248   0x08005248   0x00000040   Code   RO         2885    i.delay_ms          delay.o
    0x08005288   0x08005288   0x00000048   Code   RO         2886    i.delay_us          delay.o
    0x080052d0   0x080052d0   0x00000024   Code   RO         3398    i.fputc             usart.o
    0x080052f4   0x080052f4   0x00000018   Code   RO         3399    i.int8ToShort       usart.o
    0x0800530c   0x0800530c   0x00000020   Code   RO         2949    i.main              main.o
    0x0800532c   0x0800532c   0x00000098   Code   RO         2488    i.prvAddCurrentTaskToDelayedList  tasks.o
    0x080053c4   0x080053c4   0x000000b8   Code   RO         2489    i.prvAddNewTaskToReadyList  tasks.o
    0x0800547c   0x0800547c   0x00000048   Code   RO         2490    i.prvCheckTasksWaitingTermination  tasks.o
    0x080054c4   0x080054c4   0x00000012   Code   RO         2491    i.prvDeleteTCB      tasks.o
    0x080054d6   0x080054d6   0x00000002   PAD
    0x080054d8   0x080054d8   0x0000007c   Code   RO         1922    i.prvHeapInit       heap_4.o
    0x08005554   0x08005554   0x00000028   Code   RO         2492    i.prvIdleTask       tasks.o
    0x0800557c   0x0800557c   0x000000e4   Code   RO         2493    i.prvInitialiseNewTask  tasks.o
    0x08005660   0x08005660   0x00000068   Code   RO         2494    i.prvInitialiseTaskLists  tasks.o
    0x080056c8   0x080056c8   0x00000068   Code   RO         1923    i.prvInsertBlockIntoFreeList  heap_4.o
    0x08005730   0x08005730   0x00000034   Code   RO         2496    i.prvResetNextTaskUnblockTime  tasks.o
    0x08005764   0x08005764   0x00000070   Code   RO         2018    i.prvTaskExitError  port.o
    0x080057d4   0x080057d4   0x00000150   Code   RO         1924    i.pvPortMalloc      heap_4.o
    0x08005924   0x08005924   0x0000002c   Code   RO         2019    i.pxPortInitialiseStack  port.o
    0x08005950   0x08005950   0x0000000c   Code   RO         3400    i.shortToint8       usart.o
    0x0800595c   0x0800595c   0x0000000c   Code   RO         3401    i.shortTou8         usart.o
    0x08005968   0x08005968   0x0000002c   Code   RO         3348    i.startTask         app_task.o
    0x08005994   0x08005994   0x0000016c   Code   RO         3349    i.start_task        app_task.o
    0x08005b00   0x08005b00   0x00000018   Code   RO         3402    i.u8ToShort         usart.o
    0x08005b18   0x08005b18   0x00000074   Code   RO         2501    i.ulTaskNotifyTake  tasks.o
    0x08005b8c   0x08005b8c   0x00000028   Code   RO         2235    i.uxListRemove      list.o
    0x08005bb4   0x08005bb4   0x0000001a   Code   RO         2236    i.vListInitialise   list.o
    0x08005bce   0x08005bce   0x00000006   Code   RO         2237    i.vListInitialiseItem  list.o
    0x08005bd4   0x08005bd4   0x00000034   Code   RO         2238    i.vListInsert       list.o
    0x08005c08   0x08005c08   0x00000018   Code   RO         2239    i.vListInsertEnd    list.o
    0x08005c20   0x08005c20   0x00000084   Code   RO         2021    i.vPortEnterCritical  port.o
    0x08005ca4   0x08005ca4   0x0000006c   Code   RO         2022    i.vPortExitCritical  port.o
    0x08005d10   0x08005d10   0x000000b4   Code   RO         1925    i.vPortFree         heap_4.o
    0x08005dc4   0x08005dc4   0x00000020   Code   RO         2023    i.vPortSetupTimerInterrupt  port.o
    0x08005de4   0x08005de4   0x0000009c   Code   RO         2024    i.vPortValidateInterruptPriority  port.o
    0x08005e80   0x08005e80   0x00000078   Code   RO         2508    i.vTaskDelay        tasks.o
    0x08005ef8   0x08005ef8   0x00000110   Code   RO         2510    i.vTaskDelete       tasks.o
    0x08006008   0x08006008   0x00000104   Code   RO         2517    i.vTaskNotifyGiveFromISR  tasks.o
    0x0800610c   0x0800610c   0x000000b0   Code   RO         2526    i.vTaskStartScheduler  tasks.o
    0x080061bc   0x080061bc   0x00000010   Code   RO         2528    i.vTaskSuspendAll   tasks.o
    0x080061cc   0x080061cc   0x000000ec   Code   RO         2529    i.vTaskSwitchContext  tasks.o
    0x080062b8   0x080062b8   0x00000158   Code   RO         2025    i.xPortStartScheduler  port.o
    0x08006410   0x08006410   0x00000034   Code   RO         2026    i.xPortSysTickHandler  port.o
    0x08006444   0x08006444   0x00000060   Code   RO         2531    i.xTaskCreate       tasks.o
    0x080064a4   0x080064a4   0x00000020   Code   RO         2535    i.xTaskGetSchedulerState  tasks.o
    0x080064c4   0x080064c4   0x00000164   Code   RO         2538    i.xTaskIncrementTick  tasks.o
    0x08006628   0x08006628   0x00000124   Code   RO         2544    i.xTaskResumeAll    tasks.o
    0x0800674c   0x0800674c   0x00000062   Code   RO         3998    x$fpl$d2f           fz_wm.l(d2f.o)
    0x080067ae   0x080067ae   0x00000002   PAD
    0x080067b0   0x080067b0   0x00000150   Code   RO         4000    x$fpl$dadd          fz_wm.l(daddsub_clz.o)
    0x08006900   0x08006900   0x00000018   Code   RO         4046    x$fpl$dcmpinf       fz_wm.l(dcmpi.o)
    0x08006918   0x08006918   0x00000078   Code   RO         4006    x$fpl$deqf          fz_wm.l(deqf.o)
    0x08006990   0x08006990   0x0000002e   Code   RO         4009    x$fpl$dflt          fz_wm.l(dflt_clz.o)
    0x080069be   0x080069be   0x00000002   PAD
    0x080069c0   0x080069c0   0x00000078   Code   RO         4014    x$fpl$dleqf         fz_wm.l(dleqf.o)
    0x08006a38   0x08006a38   0x0000009c   Code   RO         4048    x$fpl$dnaninf       fz_wm.l(dnaninf.o)
    0x08006ad4   0x08006ad4   0x0000000c   Code   RO         4050    x$fpl$dretinf       fz_wm.l(dretinf.o)
    0x08006ae0   0x08006ae0   0x0000006c   Code   RO         4016    x$fpl$drleqf        fz_wm.l(drleqf.o)
    0x08006b4c   0x08006b4c   0x000001d4   Code   RO         4002    x$fpl$dsub          fz_wm.l(daddsub_clz.o)
    0x08006d20   0x08006d20   0x00000056   Code   RO         4018    x$fpl$f2d           fz_wm.l(f2d.o)
    0x08006d76   0x08006d76   0x00000060   Code   RO         4020    x$fpl$ffltll        fz_wm.l(ffltll_clz.o)
    0x08006dd6   0x08006dd6   0x0000008c   Code   RO         4052    x$fpl$fnaninf       fz_wm.l(fnaninf.o)
    0x08006e62   0x08006e62   0x0000000a   Code   RO         4165    x$fpl$fpinit        fz_wm.l(fpinit.o)
    0x08006e6c   0x08006e6c   0x0000000a   Code   RO         4054    x$fpl$fretinf       fz_wm.l(fretinf.o)
    0x08006e76   0x08006e76   0x00000000   Code   RO         4056    x$fpl$usenofp       fz_wm.l(usenofp.o)
    0x08006e76   0x08006e76   0x00000002   PAD
    0x08006e78   0x08006e78   0x00000014   Data   RO         3713    .constdata          imu.o
    0x08006e8c   0x08006e8c   0x00000020   Data   RO         4223    Region$$Table       anon$$obj.o


    Execution Region RW_IRAM1 (Exec base: 0x20000000, Load base: 0x08006eac, Size: 0x000131e0, Max: 0x00030000, ABSOLUTE, COMPRESSED[0x00000038])

    Exec Addr    Load Addr    Size         Type   Attr      Idx    E Section Name        Object

    0x20000000   COMPRESSED   0x00000010   Data   RW          671    .data               stm32f4xx_rcc.o
    0x20000010   COMPRESSED   0x00000018   Data   RW         1930    .data               heap_4.o
    0x20000028   COMPRESSED   0x0000000c   Data   RW         2027    .data               port.o
    0x20000034   COMPRESSED   0x00000044   Data   RW         2547    .data               tasks.o
    0x20000078   COMPRESSED   0x00000004   Data   RW         2888    .data               delay.o
    0x2000007c   COMPRESSED   0x00000014   Data   RW         3153    .data               system_stm32f4xx.o
    0x20000090   COMPRESSED   0x00000001   Data   RW         3189    .data               led.o
    0x20000091   COMPRESSED   0x00000003   PAD
    0x20000094   COMPRESSED   0x00000004   Data   RW         3318    .data               tim2.o
    0x20000098   COMPRESSED   0x00000020   Data   RW         3350    .data               app_task.o
    0x200000b8   COMPRESSED   0x0000001c   Data   RW         3404    .data               usart.o
    0x200000d4   COMPRESSED   0x00000024   Data   RW         3552    .data               ptz.o
    0x200000f8   COMPRESSED   0x00000044   Data   RW         3615    .data               can.o
    0x2000013c   COMPRESSED   0x00000008   Data   RW         3714    .data               imu.o
    0x20000144   COMPRESSED   0x00000004   Data   RW         3785    .data               dr16.o
    0x20000148   COMPRESSED   0x00000008   Data   RW         3828    .data               shoot.o
    0x20000150   COMPRESSED   0x0000000c   Data   RW         3872    .data               severo.o
    0x2000015c   COMPRESSED   0x0000000c   Data   RW         3911    .data               general.o
    0x20000168        -       0x00012000   Zero   RW         1929    .bss                heap_4.o
    0x20012168        -       0x000002e4   Zero   RW         2546    .bss                tasks.o
    0x2001244c        -       0x00000070   Zero   RW         3403    .bss                usart.o
    0x200124bc        -       0x00000014   Zero   RW         3551    .bss                ptz.o
    0x200124d0        -       0x00000028   Zero   RW         3614    .bss                can.o
    0x200124f8        -       0x000005b0   Zero   RW         3673    .bss                pid.o
    0x20012aa8        -       0x00000078   Zero   RW         3712    .bss                imu.o
    0x20012b20        -       0x0000005e   Zero   RW         3784    .bss                dr16.o
    0x20012b7e   COMPRESSED   0x00000002   PAD
    0x20012b80        -       0x00000060   Zero   RW         4097    .bss                c_w.l(libspace.o)
    0x20012be0        -       0x00000200   Zero   RW            2    HEAP                startup_stm32f427_437xx.o
    0x20012de0        -       0x00000400   Zero   RW            1    STACK               startup_stm32f427_437xx.o


==============================================================================

Image component sizes


      Code (inc. data)   RO Data    RW Data    ZI Data      Debug   Object Name

       408        218          0         32          0       1854   app_task.o
       196         18          0          0          0       1677   beep.o
      1328        146          0         68         40       6181   can.o
       204         18          0          4          0       2067   delay.o
       764         50          0          4         94       4174   dr16.o
       328         42          0         12          0       1655   general.o
       744        168          0         24      73728      15735   heap_4.o
      1234         92         20          8        120      11102   imu.o
        64          4          0          0          0        563   laser.o
       156         12          0          1          0       1394   led.o
       148          0          0          0          0       3410   list.o
        76          4          0          0          0       1607   main.o
       180         24          0          0          0     321885   misc.o
      3624        204          0          0       1456       4896   pid.o
      1162        376          0         12          0      11033   port.o
      1752        286          0         36         20       5925   ptz.o
       232         38          0         12          0       2572   severo.o
       400         64          0          8          0       2555   shoot.o
       280         14          0          0          0       1331   spi.o
        64         26        428          0       1536        892   startup_stm32f427_437xx.o
      1654         22          0          0          0       7764   stm32f4xx_can.o
       794         72          0          0          0       9077   stm32f4xx_dma.o
       184         16          0          0          0       2168   stm32f4xx_exti.o
       230          0          0          0          0       3557   stm32f4xx_gpio.o
        36          0          0          0          0       3355   stm32f4xx_it.o
       392         48          0         16          0       5969   stm32f4xx_rcc.o
       112          0          0          0          0       3618   stm32f4xx_spi.o
        64          4          0          0          0        676   stm32f4xx_syscfg.o
       534         46          0          0          0       8279   stm32f4xx_tim.o
       714         42          0          0          0       7561   stm32f4xx_usart.o
       392         32          0         20          0       1861   system_stm32f4xx.o
      2822        686          0         68        740      25844   tasks.o
        36          4          0          4          0       1044   tim2.o
      3088        296          0         28        112      16443   usart.o

    ----------------------------------------------------------------------
     24424       3072        480        360      77848     499724   Object Totals
         0          0         32          0          0          0   (incl. Generated)
        28          0          0          3          2          0   (incl. Padding)

    ----------------------------------------------------------------------

      Code (inc. data)   RO Data    RW Data    ZI Data      Debug   Library Member Name

        90          0          0          0          0          0   __dczerorl2.o
         8          0          0          0          0         68   __main.o
       104          0          0          0          0         84   __printf.o
         0          0          0          0          0          0   __rtentry.o
        12          0          0          0          0          0   __rtentry2.o
         6          0          0          0          0          0   __rtentry4.o
        52          8          0          0          0          0   __scatter.o
        28          0          0          0          0          0   __scatter_zi.o
        44          0          0          0          0        108   _printf_char.o
        48          6          0          0          0         96   _printf_char_common.o
        36          4          0          0          0         80   _printf_char_file.o
         6          0          0          0          0          0   _printf_d.o
       120         16          0          0          0         92   _printf_dec.o
       178          0          0          0          0         88   _printf_intcommon.o
         0          0          0          0          0          0   _printf_percent.o
         4          0          0          0          0          0   _printf_percent_end.o
         6          0          0          0          0          0   _printf_s.o
        82          0          0          0          0         80   _printf_str.o
        16          0          0          0          0         68   aeabi_memset.o
        18          0          0          0          0         80   exit.o
         8          0          0          0          0         68   ferror.o
         6          0          0          0          0        152   heapauxi.o
         2          0          0          0          0          0   libinit.o
         6          0          0          0          0          0   libinit2.o
         2          0          0          0          0          0   libshutdown.o
         2          0          0          0          0          0   libshutdown2.o
         8          4          0          0         96         68   libspace.o
        72          0          0          0          0         76   llsdiv.o
       238          0          0          0          0        100   lludivv7m.o
        24          4          0          0          0         84   noretval__2printf.o
        68          0          0          0          0         68   rt_memclr.o
        78          0          0          0          0         80   rt_memclr_w.o
       100          0          0          0          0         80   rt_memcpy_w.o
         2          0          0          0          0          0   rtexit.o
        10          0          0          0          0          0   rtexit2.o
        74          0          0          0          0         80   sys_stackheap_outer.o
         2          0          0          0          0         68   use_no_semi.o
         2          0          0          0          0         68   use_no_semi_2.o
        98          4          0          0          0        140   d2f.o
       804         16          0          0          0        368   daddsub_clz.o
        24          0          0          0          0        116   dcmpi.o
       120          4          0          0          0        140   deqf.o
        46          0          0          0          0        116   dflt_clz.o
       120          4          0          0          0        140   dleqf.o
       156          4          0          0          0        140   dnaninf.o
        12          0          0          0          0        116   dretinf.o
       108          0          0          0          0        128   drleqf.o
        86          4          0          0          0        132   f2d.o
        96          0          0          0          0        132   ffltll_clz.o
       140          4          0          0          0        132   fnaninf.o
        10          0          0          0          0        116   fpinit.o
        10          0          0          0          0        116   fretinf.o
         0          0          0          0          0          0   usenofp.o
        20          0          0          0          0        124   fabs.o

    ----------------------------------------------------------------------
      3428         82          0          0         96       3992   Library Totals
        16          0          0          0          0          0   (incl. Padding)

    ----------------------------------------------------------------------

      Code (inc. data)   RO Data    RW Data    ZI Data      Debug   Library Name

      1562         42          0          0         96       1836   c_w.l
      1830         40          0          0          0       2032   fz_wm.l
        20          0          0          0          0        124   m_wm.l

    ----------------------------------------------------------------------
      3428         82          0          0         96       3992   Library Totals

    ----------------------------------------------------------------------

==============================================================================


      Code (inc. data)   RO Data    RW Data    ZI Data      Debug   

     27852       3154        480        360      77944     483280   Grand Totals
     27852       3154        480         56      77944     483280   ELF Image Totals (compressed)
     27852       3154        480         56          0          0   ROM Totals

==============================================================================

    Total RO  Size (Code + RO Data)                28332 (  27.67kB)
    Total RW  Size (RW Data + ZI Data)             78304 (  76.47kB)
    Total ROM Size (Code + RO Data + RW Data)      28388 (  27.72kB)

==============================================================================

